

Microchip Technology PIC18 LITE Macro Assembler V2.00 build -1524193055 
                                                                                               Tue Jun 11 14:50:32 2019

Microchip Technology Omniscient Code Generator v2.00 (Free mode) build 20180527130849
     1  0000                     
     2                           ; Version 2.00
     3                           ; Generated 27/05/2018 GMT
     4                           
     5                           ; 
     6                           ; Copyright © 2018, Microchip Technology Inc. and its subsidiaries ("Microchip")
     7                           ; All rights reserved.
     8                           ; 
     9                           ; This software is developed by Microchip Technology Inc. and its subsidiaries ("Microch
                                 ip").
    10                           ; 
    11                           ; Redistribution and use in source and binary forms, with or without modification, are
    12                           ; permitted provided that the following conditions are met:
    13                           ; 
    14                           ;     1. Redistributions of source code must retain the above copyright notice, this lis
                                 t of
    15                           ;        conditions and the following disclaimer.
    16                           ; 
    17                           ;     2. Redistributions in binary form must reproduce the above copyright notice, this 
                                 list
    18                           ;        of conditions and the following disclaimer in the documentation and/or other
    19                           ;        materials provided with the distribution.
    20                           ; 
    21                           ;     3. Microchip's name may not be used to endorse or promote products derived from th
                                 is
    22                           ;        software without specific prior written permission.
    23                           ; 
    24                           ; THIS SOFTWARE IS PROVIDED BY MICROCHIP "AS IS" AND ANY EXPRESS OR IMPLIED WARRANTIES,

    25                           ; INCLUDING, BUT NOT LIMITED TO, THE IMPLIED WARRANTIES OF MERCHANTABILITY AND FITNESS F
                                 OR
    26                           ; PURPOSE ARE DISCLAIMED.  IN NO EVENT SHALL MICROCHIP BE LIABLE FOR ANY DIRECT, INDIREC
                                 T,
    27                           ; INCIDENTAL, SPECIAL, EXEMPLARY, OR CONSEQUENTIAL DAMAGES (INCLUDING BUT NOT LIMITED TO
                                 
    28                           ; PROCUREMENT OF SUBSTITUTE GOODS OR SERVICES; LOSS OF USE, DATA OR PROFITS; OR BUSINESS
                                 
    29                           ; INTERRUPTION) HOWSOEVER CAUSED AND ON ANY THEORY OF LIABILITY, WHETHER IN CONTRACT, ST
                                 RICT
    30                           ; LIABILITY, OR TORT (INCLUDING NEGLIGENCE OR OTHERWISE) ARISING IN ANY WAY OUT OF THE U
                                 SE OF
    31                           ; THIS SOFTWARE, EVEN IF ADVISED OF THE POSSIBILITY OF SUCH DAMAGE.
    32                           ; 
    33                           
    34                           
    35                           ; 
    36                           ; Code-generator required, PIC18F46K42 Definitions
    37                           ; 
    38  0000                     fsr0 equ 03FE9h
    39  0000                     fsr0h equ 03FEAh
    40  0000                     fsr0l equ 03FE9h
    41  0000                     fsr1 equ 03FE1h
    42  0000                     fsr1h equ 03FE2h
    43  0000                     fsr1l equ 03FE1h
    44  0000                     fsr2 equ 03FD9h
    45  0000                     fsr2h equ 03FDAh
    46  0000                     fsr2l equ 03FD9h
    47  0000                     indf0 equ 03FEFh
    48  0000                     indf1 equ 03FE7h
    49  0000                     indf2 equ 03FDFh
    50  0000                     intcon equ 03FD2h
    51  0000                     nvmcon equ 039E5h
    52  0000                     pcl equ 03FF9h
    53  0000                     pclath equ 03FFAh
    54  0000                     pclatu equ 03FFBh
    55  0000                     plusw0 equ 03FEBh
    56  0000                     plusw1 equ 03FE3h
    57  0000                     plusw2 equ 03FDBh
    58  0000                     postdec0 equ 03FEDh
    59  0000                     postdec1 equ 03FE5h
    60  0000                     postdec2 equ 03FDDh
    61  0000                     postinc0 equ 03FEEh
    62  0000                     postinc1 equ 03FE6h
    63  0000                     postinc2 equ 03FDEh
    64  0000                     preinc0 equ 03FECh
    65  0000                     preinc1 equ 03FE4h
    66  0000                     preinc2 equ 03FDCh
    67  0000                     prod equ 03FF3h
    68  0000                     prodh equ 03FF4h
    69  0000                     prodl equ 03FF3h
    70  0000                     status equ 03FD8h
    71  0000                     tablat equ 03FF5h
    72  0000                     tblptr equ 03FF6h
    73  0000                     tblptrh equ 03FF7h
    74  0000                     tblptrl equ 03FF6h
    75  0000                     tblptru equ 03FF8h
    76  0000                     tosl equ 03FFDh
    77  0000                     wreg equ 03FE8h
    78  0000                     
     2                           opt pagewidth 120
     3  0000                     byte0	macro	val
     4                           	(getbyte(val,0))
     5                           endm
     6  0000                     byte1	macro	val
     7                           	(getbyte(val,1))
     8                           endm
     9  0000                     byte2	macro	val
    10                           	(getbyte(val,2))
    11                           endm
    12  0000                     byte3	macro	val
    13                           	(getbyte(val,3))
    14                           endm
    15  0000                     byte4	macro	val
    16                           	(getbyte(val,4))
    17                           endm
    18  0000                     byte5	macro	val
    19                           	(getbyte(val,5))
    20                           endm
    21  0000                     byte6	macro	val
    22                           	(getbyte(val,6))
    23                           endm
    24  0000                     byte7	macro	val
    25                           	(getbyte(val,7))
    26                           endm
    27  0000                     getword	macro	val,pos
    28                           	(((val) >> (8 * pos)) and 0xffff)
    29                           endm
    30  0000                     word0	macro	val
    31                           	(getword(val,0))
    32                           endm
    33  0000                     word1	macro	val
    34                           	(getword(val,2))
    35                           endm
    36  0000                     word2	macro	val
    37                           	(getword(val,4))
    38                           endm
    39  0000                     word3	macro	val
    40                           	(getword(val,6))
    41                           endm
    42  0000                     gettword	macro	val,pos
    43                           	(((val) >> (8 * pos)) and 0xffffff)
    44                           endm
    45  0000                     tword0	macro	val
    46                           	(gettword(val,0))
    47                           endm
    48  0000                     tword1	macro	val
    49                           	(gettword(val,3))
    50                           endm
    51  0000                     tword2	macro	val
    52                           	(gettword(val,6))
    53                           endm
    54  0000                     getdword	macro	val,pos
    55                           	(((val) >> (8 * pos)) and 0xffffffff)
    56                           endm
    57  0000                     dword0	macro	val
    58                           	(getdword(val,0))
    59                           endm
    60  0000                     dword1	macro	val
    61                           	(getdword(val,4))
    62                           endm
    63  0000                     clrc   macro
    64                           	bcf	status,0
    65                           endm
    66  0000                     setc   macro
    67                           	bsf	status,0
    68                           endm
    69  0000                     clrz   macro
    70                           	bcf	status,2
    71                           endm
    72  0000                     setz   macro
    73                           	bsf	status,2
    74                           endm
    75  0000                     skipnz macro
    76                           	btfsc	status,2
    77                           endm
    78  0000                     skipz  macro
    79                           	btfss	status,2
    80                           endm
    81  0000                     skipnc macro
    82                           	btfsc	status,0
    83                           endm
    84  0000                     skipc  macro
    85                           	btfss	status,0
    86                           endm
    87  0000                     pushw macro
    88                           	movwf postinc1
    89                           endm
    90  0000                     pushf macro arg1
    91                           	movff arg1, postinc1
    92                           endm
    93  0000                     popw macro
    94                           	movf postdec1,f
    95                           	movf indf1,w
    96                           endm
    97  0000                     popf macro arg1
    98                           	movf postdec1,f
    99                           	movff indf1,arg1
   100                           endm
   101  0000                     popfc macro arg1
   102                           	movff plusw1,arg1
   103                           	decfsz fsr1,f
   104                           endm
   105  0000                     	global	__ramtop
   106                           	global	__accesstop
   107                           # 250 "C:\Program Files (x86)\Microchip\xc8\v2.00\pic\include\pic18f46k42.h"
   108                           STATUS_CSHAD equ 03880h ;# 
   109  0000                     # 339 "C:\Program Files (x86)\Microchip\xc8\v2.00\pic\include\pic18f46k42.h"
   110                           WREG_CSHAD equ 03881h ;# 
   111  0000                     # 359 "C:\Program Files (x86)\Microchip\xc8\v2.00\pic\include\pic18f46k42.h"
   112                           BSR_CSHAD equ 03882h ;# 
   113  0000                     # 366 "C:\Program Files (x86)\Microchip\xc8\v2.00\pic\include\pic18f46k42.h"
   114                           SHADCON equ 03883h ;# 
   115  0000                     # 386 "C:\Program Files (x86)\Microchip\xc8\v2.00\pic\include\pic18f46k42.h"
   116                           STATUS_SHAD equ 03884h ;# 
   117  0000                     # 475 "C:\Program Files (x86)\Microchip\xc8\v2.00\pic\include\pic18f46k42.h"
   118                           WREG_SHAD equ 03885h ;# 
   119  0000                     # 495 "C:\Program Files (x86)\Microchip\xc8\v2.00\pic\include\pic18f46k42.h"
   120                           BSR_SHAD equ 03886h ;# 
   121  0000                     # 502 "C:\Program Files (x86)\Microchip\xc8\v2.00\pic\include\pic18f46k42.h"
   122                           PCLATH_SHAD equ 03887h ;# 
   123  0000                     # 522 "C:\Program Files (x86)\Microchip\xc8\v2.00\pic\include\pic18f46k42.h"
   124                           PCLATU_SHAD equ 03888h ;# 
   125  0000                     # 542 "C:\Program Files (x86)\Microchip\xc8\v2.00\pic\include\pic18f46k42.h"
   126                           FSR0SH equ 03889h ;# 
   127  0000                     # 549 "C:\Program Files (x86)\Microchip\xc8\v2.00\pic\include\pic18f46k42.h"
   128                           FSR0L_SHAD equ 03889h ;# 
   129  0000                     # 569 "C:\Program Files (x86)\Microchip\xc8\v2.00\pic\include\pic18f46k42.h"
   130                           FSR0H_SHAD equ 0388Ah ;# 
   131  0000                     # 589 "C:\Program Files (x86)\Microchip\xc8\v2.00\pic\include\pic18f46k42.h"
   132                           FSR1SH equ 0388Bh ;# 
   133  0000                     # 596 "C:\Program Files (x86)\Microchip\xc8\v2.00\pic\include\pic18f46k42.h"
   134                           FSR1L_SHAD equ 0388Bh ;# 
   135  0000                     # 616 "C:\Program Files (x86)\Microchip\xc8\v2.00\pic\include\pic18f46k42.h"
   136                           FSR1H_SHAD equ 0388Ch ;# 
   137  0000                     # 636 "C:\Program Files (x86)\Microchip\xc8\v2.00\pic\include\pic18f46k42.h"
   138                           FSR2SH equ 0388Dh ;# 
   139  0000                     # 643 "C:\Program Files (x86)\Microchip\xc8\v2.00\pic\include\pic18f46k42.h"
   140                           FSR2L_SHAD equ 0388Dh ;# 
   141  0000                     # 663 "C:\Program Files (x86)\Microchip\xc8\v2.00\pic\include\pic18f46k42.h"
   142                           FSR2H_SHAD equ 0388Eh ;# 
   143  0000                     # 683 "C:\Program Files (x86)\Microchip\xc8\v2.00\pic\include\pic18f46k42.h"
   144                           PRODSH equ 0388Fh ;# 
   145  0000                     # 690 "C:\Program Files (x86)\Microchip\xc8\v2.00\pic\include\pic18f46k42.h"
   146                           PRODL_SHAD equ 0388Fh ;# 
   147  0000                     # 710 "C:\Program Files (x86)\Microchip\xc8\v2.00\pic\include\pic18f46k42.h"
   148                           PRODH_SHAD equ 03890h ;# 
   149  0000                     # 730 "C:\Program Files (x86)\Microchip\xc8\v2.00\pic\include\pic18f46k42.h"
   150                           IVTADL equ 0389Dh ;# 
   151  0000                     # 750 "C:\Program Files (x86)\Microchip\xc8\v2.00\pic\include\pic18f46k42.h"
   152                           IVTADH equ 0389Eh ;# 
   153  0000                     # 770 "C:\Program Files (x86)\Microchip\xc8\v2.00\pic\include\pic18f46k42.h"
   154                           IVTADU equ 0389Fh ;# 
   155  0000                     # 790 "C:\Program Files (x86)\Microchip\xc8\v2.00\pic\include\pic18f46k42.h"
   156                           WDTCON0 equ 0395Bh ;# 
   157  0000                     # 865 "C:\Program Files (x86)\Microchip\xc8\v2.00\pic\include\pic18f46k42.h"
   158                           WDTCON1 equ 0395Ch ;# 
   159  0000                     # 959 "C:\Program Files (x86)\Microchip\xc8\v2.00\pic\include\pic18f46k42.h"
   160                           WDTPSL equ 0395Dh ;# 
   161  0000                     # 1087 "C:\Program Files (x86)\Microchip\xc8\v2.00\pic\include\pic18f46k42.h"
   162                           WDTPSH equ 0395Eh ;# 
   163  0000                     # 1215 "C:\Program Files (x86)\Microchip\xc8\v2.00\pic\include\pic18f46k42.h"
   164                           WDTTMR equ 0395Fh ;# 
   165  0000                     # 1303 "C:\Program Files (x86)\Microchip\xc8\v2.00\pic\include\pic18f46k42.h"
   166                           CRCDATA equ 03960h ;# 
   167  0000                     # 1310 "C:\Program Files (x86)\Microchip\xc8\v2.00\pic\include\pic18f46k42.h"
   168                           CRCDATL equ 03960h ;# 
   169  0000                     # 1372 "C:\Program Files (x86)\Microchip\xc8\v2.00\pic\include\pic18f46k42.h"
   170                           CRCDATH equ 03961h ;# 
   171  0000                     # 1434 "C:\Program Files (x86)\Microchip\xc8\v2.00\pic\include\pic18f46k42.h"
   172                           CRCACC equ 03962h ;# 
   173  0000                     # 1441 "C:\Program Files (x86)\Microchip\xc8\v2.00\pic\include\pic18f46k42.h"
   174                           CRCACCL equ 03962h ;# 
   175  0000                     # 1503 "C:\Program Files (x86)\Microchip\xc8\v2.00\pic\include\pic18f46k42.h"
   176                           CRCACCH equ 03963h ;# 
   177  0000                     # 1565 "C:\Program Files (x86)\Microchip\xc8\v2.00\pic\include\pic18f46k42.h"
   178                           CRCSHFT equ 03964h ;# 
   179  0000                     # 1572 "C:\Program Files (x86)\Microchip\xc8\v2.00\pic\include\pic18f46k42.h"
   180                           CRCSHIFTL equ 03964h ;# 
   181  0000                     # 1634 "C:\Program Files (x86)\Microchip\xc8\v2.00\pic\include\pic18f46k42.h"
   182                           CRCSHIFTH equ 03965h ;# 
   183  0000                     # 1696 "C:\Program Files (x86)\Microchip\xc8\v2.00\pic\include\pic18f46k42.h"
   184                           CRCXOR equ 03966h ;# 
   185  0000                     # 1703 "C:\Program Files (x86)\Microchip\xc8\v2.00\pic\include\pic18f46k42.h"
   186                           CRCXORL equ 03966h ;# 
   187  0000                     # 1760 "C:\Program Files (x86)\Microchip\xc8\v2.00\pic\include\pic18f46k42.h"
   188                           CRCXORH equ 03967h ;# 
   189  0000                     # 1822 "C:\Program Files (x86)\Microchip\xc8\v2.00\pic\include\pic18f46k42.h"
   190                           CRCCON0 equ 03968h ;# 
   191  0000                     # 1882 "C:\Program Files (x86)\Microchip\xc8\v2.00\pic\include\pic18f46k42.h"
   192                           CRCCON1 equ 03969h ;# 
   193  0000                     # 1960 "C:\Program Files (x86)\Microchip\xc8\v2.00\pic\include\pic18f46k42.h"
   194                           SCANLADR equ 03976h ;# 
   195  0000                     # 1967 "C:\Program Files (x86)\Microchip\xc8\v2.00\pic\include\pic18f46k42.h"
   196                           SCANLADRL equ 03976h ;# 
   197  0000                     # 2095 "C:\Program Files (x86)\Microchip\xc8\v2.00\pic\include\pic18f46k42.h"
   198                           SCANLADRH equ 03977h ;# 
   199  0000                     # 2223 "C:\Program Files (x86)\Microchip\xc8\v2.00\pic\include\pic18f46k42.h"
   200                           SCANLADRU equ 03978h ;# 
   201  0000                     # 2329 "C:\Program Files (x86)\Microchip\xc8\v2.00\pic\include\pic18f46k42.h"
   202                           SCANHADR equ 03979h ;# 
   203  0000                     # 2336 "C:\Program Files (x86)\Microchip\xc8\v2.00\pic\include\pic18f46k42.h"
   204                           SCANHADRL equ 03979h ;# 
   205  0000                     # 2464 "C:\Program Files (x86)\Microchip\xc8\v2.00\pic\include\pic18f46k42.h"
   206                           SCANHADRH equ 0397Ah ;# 
   207  0000                     # 2592 "C:\Program Files (x86)\Microchip\xc8\v2.00\pic\include\pic18f46k42.h"
   208                           SCANHADRU equ 0397Bh ;# 
   209  0000                     # 2696 "C:\Program Files (x86)\Microchip\xc8\v2.00\pic\include\pic18f46k42.h"
   210                           SCANCON0 equ 0397Ch ;# 
   211  0000                     # 2747 "C:\Program Files (x86)\Microchip\xc8\v2.00\pic\include\pic18f46k42.h"
   212                           SCANTRIG equ 0397Dh ;# 
   213  0000                     # 2767 "C:\Program Files (x86)\Microchip\xc8\v2.00\pic\include\pic18f46k42.h"
   214                           IPR0 equ 03980h ;# 
   215  0000                     # 2829 "C:\Program Files (x86)\Microchip\xc8\v2.00\pic\include\pic18f46k42.h"
   216                           IPR1 equ 03981h ;# 
   217  0000                     # 2913 "C:\Program Files (x86)\Microchip\xc8\v2.00\pic\include\pic18f46k42.h"
   218                           IPR2 equ 03982h ;# 
   219  0000                     # 2984 "C:\Program Files (x86)\Microchip\xc8\v2.00\pic\include\pic18f46k42.h"
   220                           IPR3 equ 03983h ;# 
   221  0000                     # 3062 "C:\Program Files (x86)\Microchip\xc8\v2.00\pic\include\pic18f46k42.h"
   222                           IPR4 equ 03984h ;# 
   223  0000                     # 3127 "C:\Program Files (x86)\Microchip\xc8\v2.00\pic\include\pic18f46k42.h"
   224                           IPR5 equ 03985h ;# 
   225  0000                     # 3216 "C:\Program Files (x86)\Microchip\xc8\v2.00\pic\include\pic18f46k42.h"
   226                           IPR6 equ 03986h ;# 
   227  0000                     # 3278 "C:\Program Files (x86)\Microchip\xc8\v2.00\pic\include\pic18f46k42.h"
   228                           IPR7 equ 03987h ;# 
   229  0000                     # 3323 "C:\Program Files (x86)\Microchip\xc8\v2.00\pic\include\pic18f46k42.h"
   230                           IPR8 equ 03988h ;# 
   231  0000                     # 3350 "C:\Program Files (x86)\Microchip\xc8\v2.00\pic\include\pic18f46k42.h"
   232                           IPR9 equ 03989h ;# 
   233  0000                     # 3388 "C:\Program Files (x86)\Microchip\xc8\v2.00\pic\include\pic18f46k42.h"
   234                           IPR10 equ 0398Ah ;# 
   235  0000                     # 3414 "C:\Program Files (x86)\Microchip\xc8\v2.00\pic\include\pic18f46k42.h"
   236                           PIE0 equ 03990h ;# 
   237  0000                     # 3476 "C:\Program Files (x86)\Microchip\xc8\v2.00\pic\include\pic18f46k42.h"
   238                           PIE1 equ 03991h ;# 
   239  0000                     # 3569 "C:\Program Files (x86)\Microchip\xc8\v2.00\pic\include\pic18f46k42.h"
   240                           PIE2 equ 03992h ;# 
   241  0000                     # 3640 "C:\Program Files (x86)\Microchip\xc8\v2.00\pic\include\pic18f46k42.h"
   242                           PIE3 equ 03993h ;# 
   243  0000                     # 3750 "C:\Program Files (x86)\Microchip\xc8\v2.00\pic\include\pic18f46k42.h"
   244                           PIE4 equ 03994h ;# 
   245  0000                     # 3807 "C:\Program Files (x86)\Microchip\xc8\v2.00\pic\include\pic18f46k42.h"
   246                           PIE5 equ 03995h ;# 
   247  0000                     # 3869 "C:\Program Files (x86)\Microchip\xc8\v2.00\pic\include\pic18f46k42.h"
   248                           PIE6 equ 03996h ;# 
   249  0000                     # 3931 "C:\Program Files (x86)\Microchip\xc8\v2.00\pic\include\pic18f46k42.h"
   250                           PIE7 equ 03997h ;# 
   251  0000                     # 3976 "C:\Program Files (x86)\Microchip\xc8\v2.00\pic\include\pic18f46k42.h"
   252                           PIE8 equ 03998h ;# 
   253  0000                     # 4003 "C:\Program Files (x86)\Microchip\xc8\v2.00\pic\include\pic18f46k42.h"
   254                           PIE9 equ 03999h ;# 
   255  0000                     # 4041 "C:\Program Files (x86)\Microchip\xc8\v2.00\pic\include\pic18f46k42.h"
   256                           PIE10 equ 0399Ah ;# 
   257  0000                     # 4067 "C:\Program Files (x86)\Microchip\xc8\v2.00\pic\include\pic18f46k42.h"
   258                           PIR0 equ 039A0h ;# 
   259  0000                     # 4129 "C:\Program Files (x86)\Microchip\xc8\v2.00\pic\include\pic18f46k42.h"
   260                           PIR1 equ 039A1h ;# 
   261  0000                     # 4222 "C:\Program Files (x86)\Microchip\xc8\v2.00\pic\include\pic18f46k42.h"
   262                           PIR2 equ 039A2h ;# 
   263  0000                     # 4293 "C:\Program Files (x86)\Microchip\xc8\v2.00\pic\include\pic18f46k42.h"
   264                           PIR3 equ 039A3h ;# 
   265  0000                     # 4371 "C:\Program Files (x86)\Microchip\xc8\v2.00\pic\include\pic18f46k42.h"
   266                           PIR4 equ 039A4h ;# 
   267  0000                     # 4428 "C:\Program Files (x86)\Microchip\xc8\v2.00\pic\include\pic18f46k42.h"
   268                           PIR5 equ 039A5h ;# 
   269  0000                     # 4490 "C:\Program Files (x86)\Microchip\xc8\v2.00\pic\include\pic18f46k42.h"
   270                           PIR6 equ 039A6h ;# 
   271  0000                     # 4552 "C:\Program Files (x86)\Microchip\xc8\v2.00\pic\include\pic18f46k42.h"
   272                           PIR7 equ 039A7h ;# 
   273  0000                     # 4597 "C:\Program Files (x86)\Microchip\xc8\v2.00\pic\include\pic18f46k42.h"
   274                           PIR8 equ 039A8h ;# 
   275  0000                     # 4624 "C:\Program Files (x86)\Microchip\xc8\v2.00\pic\include\pic18f46k42.h"
   276                           PIR9 equ 039A9h ;# 
   277  0000                     # 4662 "C:\Program Files (x86)\Microchip\xc8\v2.00\pic\include\pic18f46k42.h"
   278                           PIR10 equ 039AAh ;# 
   279  0000                     # 4688 "C:\Program Files (x86)\Microchip\xc8\v2.00\pic\include\pic18f46k42.h"
   280                           PMD0 equ 039C0h ;# 
   281  0000                     # 4765 "C:\Program Files (x86)\Microchip\xc8\v2.00\pic\include\pic18f46k42.h"
   282                           PMD1 equ 039C1h ;# 
   283  0000                     # 4835 "C:\Program Files (x86)\Microchip\xc8\v2.00\pic\include\pic18f46k42.h"
   284                           PMD2 equ 039C2h ;# 
   285  0000                     # 4880 "C:\Program Files (x86)\Microchip\xc8\v2.00\pic\include\pic18f46k42.h"
   286                           PMD3 equ 039C3h ;# 
   287  0000                     # 4942 "C:\Program Files (x86)\Microchip\xc8\v2.00\pic\include\pic18f46k42.h"
   288                           PMD4 equ 039C4h ;# 
   289  0000                     # 4975 "C:\Program Files (x86)\Microchip\xc8\v2.00\pic\include\pic18f46k42.h"
   290                           PMD5 equ 039C5h ;# 
   291  0000                     # 5020 "C:\Program Files (x86)\Microchip\xc8\v2.00\pic\include\pic18f46k42.h"
   292                           PMD6 equ 039C6h ;# 
   293  0000                     # 5070 "C:\Program Files (x86)\Microchip\xc8\v2.00\pic\include\pic18f46k42.h"
   294                           PMD7 equ 039C7h ;# 
   295  0000                     # 5096 "C:\Program Files (x86)\Microchip\xc8\v2.00\pic\include\pic18f46k42.h"
   296                           BORCON equ 039D0h ;# 
   297  0000                     # 5123 "C:\Program Files (x86)\Microchip\xc8\v2.00\pic\include\pic18f46k42.h"
   298                           VREGCON equ 039D1h ;# 
   299  0000                     # 5144 "C:\Program Files (x86)\Microchip\xc8\v2.00\pic\include\pic18f46k42.h"
   300                           CPUDOZE equ 039D8h ;# 
   301  0000                     # 5209 "C:\Program Files (x86)\Microchip\xc8\v2.00\pic\include\pic18f46k42.h"
   302                           OSCCON1 equ 039D9h ;# 
   303  0000                     # 5279 "C:\Program Files (x86)\Microchip\xc8\v2.00\pic\include\pic18f46k42.h"
   304                           OSCCON2 equ 039DAh ;# 
   305  0000                     # 5349 "C:\Program Files (x86)\Microchip\xc8\v2.00\pic\include\pic18f46k42.h"
   306                           OSCCON3 equ 039DBh ;# 
   307  0000                     # 5389 "C:\Program Files (x86)\Microchip\xc8\v2.00\pic\include\pic18f46k42.h"
   308                           OSCSTAT equ 039DCh ;# 
   309  0000                     # 5394 "C:\Program Files (x86)\Microchip\xc8\v2.00\pic\include\pic18f46k42.h"
   310                           OSCSTAT1 equ 039DCh ;# 
   311  0000                     # 5501 "C:\Program Files (x86)\Microchip\xc8\v2.00\pic\include\pic18f46k42.h"
   312                           OSCEN equ 039DDh ;# 
   313  0000                     # 5552 "C:\Program Files (x86)\Microchip\xc8\v2.00\pic\include\pic18f46k42.h"
   314                           OSCTUNE equ 039DEh ;# 
   315  0000                     # 5656 "C:\Program Files (x86)\Microchip\xc8\v2.00\pic\include\pic18f46k42.h"
   316                           OSCFRQ equ 039DFh ;# 
   317  0000                     # 5736 "C:\Program Files (x86)\Microchip\xc8\v2.00\pic\include\pic18f46k42.h"
   318                           NVMADRL equ 039E0h ;# 
   319  0000                     # 5864 "C:\Program Files (x86)\Microchip\xc8\v2.00\pic\include\pic18f46k42.h"
   320                           NVMADRH equ 039E1h ;# 
   321  0000                     # 5920 "C:\Program Files (x86)\Microchip\xc8\v2.00\pic\include\pic18f46k42.h"
   322                           NVMDAT equ 039E3h ;# 
   323  0000                     # 6048 "C:\Program Files (x86)\Microchip\xc8\v2.00\pic\include\pic18f46k42.h"
   324                           NVMCON1 equ 039E5h ;# 
   325  0000                     # 6138 "C:\Program Files (x86)\Microchip\xc8\v2.00\pic\include\pic18f46k42.h"
   326                           NVMCON2 equ 039E6h ;# 
   327  0000                     # 6158 "C:\Program Files (x86)\Microchip\xc8\v2.00\pic\include\pic18f46k42.h"
   328                           PRLOCK equ 039EFh ;# 
   329  0000                     # 6178 "C:\Program Files (x86)\Microchip\xc8\v2.00\pic\include\pic18f46k42.h"
   330                           ISRPR equ 039F1h ;# 
   331  0000                     # 6246 "C:\Program Files (x86)\Microchip\xc8\v2.00\pic\include\pic18f46k42.h"
   332                           MAINPR equ 039F2h ;# 
   333  0000                     # 6314 "C:\Program Files (x86)\Microchip\xc8\v2.00\pic\include\pic18f46k42.h"
   334                           DMA1PR equ 039F3h ;# 
   335  0000                     # 6382 "C:\Program Files (x86)\Microchip\xc8\v2.00\pic\include\pic18f46k42.h"
   336                           DMA2PR equ 039F4h ;# 
   337  0000                     # 6450 "C:\Program Files (x86)\Microchip\xc8\v2.00\pic\include\pic18f46k42.h"
   338                           SCANPR equ 039F7h ;# 
   339  0000                     # 6518 "C:\Program Files (x86)\Microchip\xc8\v2.00\pic\include\pic18f46k42.h"
   340                           RA0PPS equ 03A00h ;# 
   341  0000                     # 6568 "C:\Program Files (x86)\Microchip\xc8\v2.00\pic\include\pic18f46k42.h"
   342                           RA1PPS equ 03A01h ;# 
   343  0000                     # 6618 "C:\Program Files (x86)\Microchip\xc8\v2.00\pic\include\pic18f46k42.h"
   344                           RA2PPS equ 03A02h ;# 
   345  0000                     # 6668 "C:\Program Files (x86)\Microchip\xc8\v2.00\pic\include\pic18f46k42.h"
   346                           RA3PPS equ 03A03h ;# 
   347  0000                     # 6718 "C:\Program Files (x86)\Microchip\xc8\v2.00\pic\include\pic18f46k42.h"
   348                           RA4PPS equ 03A04h ;# 
   349  0000                     # 6768 "C:\Program Files (x86)\Microchip\xc8\v2.00\pic\include\pic18f46k42.h"
   350                           RA5PPS equ 03A05h ;# 
   351  0000                     # 6818 "C:\Program Files (x86)\Microchip\xc8\v2.00\pic\include\pic18f46k42.h"
   352                           RA6PPS equ 03A06h ;# 
   353  0000                     # 6868 "C:\Program Files (x86)\Microchip\xc8\v2.00\pic\include\pic18f46k42.h"
   354                           RA7PPS equ 03A07h ;# 
   355  0000                     # 6918 "C:\Program Files (x86)\Microchip\xc8\v2.00\pic\include\pic18f46k42.h"
   356                           RB0PPS equ 03A08h ;# 
   357  0000                     # 6968 "C:\Program Files (x86)\Microchip\xc8\v2.00\pic\include\pic18f46k42.h"
   358                           RB1PPS equ 03A09h ;# 
   359  0000                     # 7018 "C:\Program Files (x86)\Microchip\xc8\v2.00\pic\include\pic18f46k42.h"
   360                           RB2PPS equ 03A0Ah ;# 
   361  0000                     # 7068 "C:\Program Files (x86)\Microchip\xc8\v2.00\pic\include\pic18f46k42.h"
   362                           RB3PPS equ 03A0Bh ;# 
   363  0000                     # 7118 "C:\Program Files (x86)\Microchip\xc8\v2.00\pic\include\pic18f46k42.h"
   364                           RB4PPS equ 03A0Ch ;# 
   365  0000                     # 7168 "C:\Program Files (x86)\Microchip\xc8\v2.00\pic\include\pic18f46k42.h"
   366                           RB5PPS equ 03A0Dh ;# 
   367  0000                     # 7218 "C:\Program Files (x86)\Microchip\xc8\v2.00\pic\include\pic18f46k42.h"
   368                           RB6PPS equ 03A0Eh ;# 
   369  0000                     # 7268 "C:\Program Files (x86)\Microchip\xc8\v2.00\pic\include\pic18f46k42.h"
   370                           RB7PPS equ 03A0Fh ;# 
   371  0000                     # 7318 "C:\Program Files (x86)\Microchip\xc8\v2.00\pic\include\pic18f46k42.h"
   372                           RC0PPS equ 03A10h ;# 
   373  0000                     # 7368 "C:\Program Files (x86)\Microchip\xc8\v2.00\pic\include\pic18f46k42.h"
   374                           RC1PPS equ 03A11h ;# 
   375  0000                     # 7418 "C:\Program Files (x86)\Microchip\xc8\v2.00\pic\include\pic18f46k42.h"
   376                           RC2PPS equ 03A12h ;# 
   377  0000                     # 7468 "C:\Program Files (x86)\Microchip\xc8\v2.00\pic\include\pic18f46k42.h"
   378                           RC3PPS equ 03A13h ;# 
   379  0000                     # 7518 "C:\Program Files (x86)\Microchip\xc8\v2.00\pic\include\pic18f46k42.h"
   380                           RC4PPS equ 03A14h ;# 
   381  0000                     # 7568 "C:\Program Files (x86)\Microchip\xc8\v2.00\pic\include\pic18f46k42.h"
   382                           RC5PPS equ 03A15h ;# 
   383  0000                     # 7618 "C:\Program Files (x86)\Microchip\xc8\v2.00\pic\include\pic18f46k42.h"
   384                           RC6PPS equ 03A16h ;# 
   385  0000                     # 7668 "C:\Program Files (x86)\Microchip\xc8\v2.00\pic\include\pic18f46k42.h"
   386                           RC7PPS equ 03A17h ;# 
   387  0000                     # 7718 "C:\Program Files (x86)\Microchip\xc8\v2.00\pic\include\pic18f46k42.h"
   388                           RD0PPS equ 03A18h ;# 
   389  0000                     # 7768 "C:\Program Files (x86)\Microchip\xc8\v2.00\pic\include\pic18f46k42.h"
   390                           RD1PPS equ 03A19h ;# 
   391  0000                     # 7818 "C:\Program Files (x86)\Microchip\xc8\v2.00\pic\include\pic18f46k42.h"
   392                           RD2PPS equ 03A1Ah ;# 
   393  0000                     # 7868 "C:\Program Files (x86)\Microchip\xc8\v2.00\pic\include\pic18f46k42.h"
   394                           RD3PPS equ 03A1Bh ;# 
   395  0000                     # 7918 "C:\Program Files (x86)\Microchip\xc8\v2.00\pic\include\pic18f46k42.h"
   396                           RD4PPS equ 03A1Ch ;# 
   397  0000                     # 7968 "C:\Program Files (x86)\Microchip\xc8\v2.00\pic\include\pic18f46k42.h"
   398                           RD5PPS equ 03A1Dh ;# 
   399  0000                     # 8018 "C:\Program Files (x86)\Microchip\xc8\v2.00\pic\include\pic18f46k42.h"
   400                           RD6PPS equ 03A1Eh ;# 
   401  0000                     # 8068 "C:\Program Files (x86)\Microchip\xc8\v2.00\pic\include\pic18f46k42.h"
   402                           RD7PPS equ 03A1Fh ;# 
   403  0000                     # 8118 "C:\Program Files (x86)\Microchip\xc8\v2.00\pic\include\pic18f46k42.h"
   404                           RE0PPS equ 03A20h ;# 
   405  0000                     # 8168 "C:\Program Files (x86)\Microchip\xc8\v2.00\pic\include\pic18f46k42.h"
   406                           RE1PPS equ 03A21h ;# 
   407  0000                     # 8218 "C:\Program Files (x86)\Microchip\xc8\v2.00\pic\include\pic18f46k42.h"
   408                           RE2PPS equ 03A22h ;# 
   409  0000                     # 8268 "C:\Program Files (x86)\Microchip\xc8\v2.00\pic\include\pic18f46k42.h"
   410                           ANSELA equ 03A40h ;# 
   411  0000                     # 8330 "C:\Program Files (x86)\Microchip\xc8\v2.00\pic\include\pic18f46k42.h"
   412                           WPUA equ 03A41h ;# 
   413  0000                     # 8392 "C:\Program Files (x86)\Microchip\xc8\v2.00\pic\include\pic18f46k42.h"
   414                           ODCONA equ 03A42h ;# 
   415  0000                     # 8454 "C:\Program Files (x86)\Microchip\xc8\v2.00\pic\include\pic18f46k42.h"
   416                           SLRCONA equ 03A43h ;# 
   417  0000                     # 8516 "C:\Program Files (x86)\Microchip\xc8\v2.00\pic\include\pic18f46k42.h"
   418                           INLVLA equ 03A44h ;# 
   419  0000                     # 8578 "C:\Program Files (x86)\Microchip\xc8\v2.00\pic\include\pic18f46k42.h"
   420                           IOCAP equ 03A45h ;# 
   421  0000                     # 8640 "C:\Program Files (x86)\Microchip\xc8\v2.00\pic\include\pic18f46k42.h"
   422                           IOCAN equ 03A46h ;# 
   423  0000                     # 8702 "C:\Program Files (x86)\Microchip\xc8\v2.00\pic\include\pic18f46k42.h"
   424                           IOCAF equ 03A47h ;# 
   425  0000                     # 8764 "C:\Program Files (x86)\Microchip\xc8\v2.00\pic\include\pic18f46k42.h"
   426                           CCDPA equ 03A48h ;# 
   427  0000                     # 8826 "C:\Program Files (x86)\Microchip\xc8\v2.00\pic\include\pic18f46k42.h"
   428                           CCDNA equ 03A49h ;# 
   429  0000                     # 8888 "C:\Program Files (x86)\Microchip\xc8\v2.00\pic\include\pic18f46k42.h"
   430                           ANSELB equ 03A50h ;# 
   431  0000                     # 8950 "C:\Program Files (x86)\Microchip\xc8\v2.00\pic\include\pic18f46k42.h"
   432                           WPUB equ 03A51h ;# 
   433  0000                     # 9012 "C:\Program Files (x86)\Microchip\xc8\v2.00\pic\include\pic18f46k42.h"
   434                           ODCONB equ 03A52h ;# 
   435  0000                     # 9074 "C:\Program Files (x86)\Microchip\xc8\v2.00\pic\include\pic18f46k42.h"
   436                           SLRCONB equ 03A53h ;# 
   437  0000                     # 9136 "C:\Program Files (x86)\Microchip\xc8\v2.00\pic\include\pic18f46k42.h"
   438                           INLVLB equ 03A54h ;# 
   439  0000                     # 9198 "C:\Program Files (x86)\Microchip\xc8\v2.00\pic\include\pic18f46k42.h"
   440                           IOCBP equ 03A55h ;# 
   441  0000                     # 9260 "C:\Program Files (x86)\Microchip\xc8\v2.00\pic\include\pic18f46k42.h"
   442                           IOCBN equ 03A56h ;# 
   443  0000                     # 9322 "C:\Program Files (x86)\Microchip\xc8\v2.00\pic\include\pic18f46k42.h"
   444                           IOCBF equ 03A57h ;# 
   445  0000                     # 9384 "C:\Program Files (x86)\Microchip\xc8\v2.00\pic\include\pic18f46k42.h"
   446                           CCDPB equ 03A58h ;# 
   447  0000                     # 9446 "C:\Program Files (x86)\Microchip\xc8\v2.00\pic\include\pic18f46k42.h"
   448                           CCDNB equ 03A59h ;# 
   449  0000                     # 9508 "C:\Program Files (x86)\Microchip\xc8\v2.00\pic\include\pic18f46k42.h"
   450                           RB1I2C equ 03A5Ah ;# 
   451  0000                     # 9616 "C:\Program Files (x86)\Microchip\xc8\v2.00\pic\include\pic18f46k42.h"
   452                           RB2I2C equ 03A5Bh ;# 
   453  0000                     # 9724 "C:\Program Files (x86)\Microchip\xc8\v2.00\pic\include\pic18f46k42.h"
   454                           ANSELC equ 03A60h ;# 
   455  0000                     # 9786 "C:\Program Files (x86)\Microchip\xc8\v2.00\pic\include\pic18f46k42.h"
   456                           WPUC equ 03A61h ;# 
   457  0000                     # 9848 "C:\Program Files (x86)\Microchip\xc8\v2.00\pic\include\pic18f46k42.h"
   458                           ODCONC equ 03A62h ;# 
   459  0000                     # 9910 "C:\Program Files (x86)\Microchip\xc8\v2.00\pic\include\pic18f46k42.h"
   460                           SLRCONC equ 03A63h ;# 
   461  0000                     # 9972 "C:\Program Files (x86)\Microchip\xc8\v2.00\pic\include\pic18f46k42.h"
   462                           INLVLC equ 03A64h ;# 
   463  0000                     # 10034 "C:\Program Files (x86)\Microchip\xc8\v2.00\pic\include\pic18f46k42.h"
   464                           IOCCP equ 03A65h ;# 
   465  0000                     # 10096 "C:\Program Files (x86)\Microchip\xc8\v2.00\pic\include\pic18f46k42.h"
   466                           IOCCN equ 03A66h ;# 
   467  0000                     # 10158 "C:\Program Files (x86)\Microchip\xc8\v2.00\pic\include\pic18f46k42.h"
   468                           IOCCF equ 03A67h ;# 
   469  0000                     # 10220 "C:\Program Files (x86)\Microchip\xc8\v2.00\pic\include\pic18f46k42.h"
   470                           CCDPC equ 03A68h ;# 
   471  0000                     # 10282 "C:\Program Files (x86)\Microchip\xc8\v2.00\pic\include\pic18f46k42.h"
   472                           CCDNC equ 03A69h ;# 
   473  0000                     # 10344 "C:\Program Files (x86)\Microchip\xc8\v2.00\pic\include\pic18f46k42.h"
   474                           RC3I2C equ 03A6Ah ;# 
   475  0000                     # 10452 "C:\Program Files (x86)\Microchip\xc8\v2.00\pic\include\pic18f46k42.h"
   476                           RC4I2C equ 03A6Bh ;# 
   477  0000                     # 10560 "C:\Program Files (x86)\Microchip\xc8\v2.00\pic\include\pic18f46k42.h"
   478                           ANSELD equ 03A70h ;# 
   479  0000                     # 10622 "C:\Program Files (x86)\Microchip\xc8\v2.00\pic\include\pic18f46k42.h"
   480                           WPUD equ 03A71h ;# 
   481  0000                     # 10684 "C:\Program Files (x86)\Microchip\xc8\v2.00\pic\include\pic18f46k42.h"
   482                           ODCOND equ 03A72h ;# 
   483  0000                     # 10746 "C:\Program Files (x86)\Microchip\xc8\v2.00\pic\include\pic18f46k42.h"
   484                           SLRCOND equ 03A73h ;# 
   485  0000                     # 10808 "C:\Program Files (x86)\Microchip\xc8\v2.00\pic\include\pic18f46k42.h"
   486                           INLVLD equ 03A74h ;# 
   487  0000                     # 10870 "C:\Program Files (x86)\Microchip\xc8\v2.00\pic\include\pic18f46k42.h"
   488                           CCDPD equ 03A78h ;# 
   489  0000                     # 10932 "C:\Program Files (x86)\Microchip\xc8\v2.00\pic\include\pic18f46k42.h"
   490                           CCDND equ 03A79h ;# 
   491  0000                     # 10994 "C:\Program Files (x86)\Microchip\xc8\v2.00\pic\include\pic18f46k42.h"
   492                           RD0I2C equ 03A7Ah ;# 
   493  0000                     # 11102 "C:\Program Files (x86)\Microchip\xc8\v2.00\pic\include\pic18f46k42.h"
   494                           RD1I2C equ 03A7Bh ;# 
   495  0000                     # 11210 "C:\Program Files (x86)\Microchip\xc8\v2.00\pic\include\pic18f46k42.h"
   496                           ANSELE equ 03A80h ;# 
   497  0000                     # 11242 "C:\Program Files (x86)\Microchip\xc8\v2.00\pic\include\pic18f46k42.h"
   498                           WPUE equ 03A81h ;# 
   499  0000                     # 11280 "C:\Program Files (x86)\Microchip\xc8\v2.00\pic\include\pic18f46k42.h"
   500                           ODCONE equ 03A82h ;# 
   501  0000                     # 11312 "C:\Program Files (x86)\Microchip\xc8\v2.00\pic\include\pic18f46k42.h"
   502                           SLRCONE equ 03A83h ;# 
   503  0000                     # 11344 "C:\Program Files (x86)\Microchip\xc8\v2.00\pic\include\pic18f46k42.h"
   504                           INLVLE equ 03A84h ;# 
   505  0000                     # 11382 "C:\Program Files (x86)\Microchip\xc8\v2.00\pic\include\pic18f46k42.h"
   506                           IOCEP equ 03A85h ;# 
   507  0000                     # 11403 "C:\Program Files (x86)\Microchip\xc8\v2.00\pic\include\pic18f46k42.h"
   508                           IOCEN equ 03A86h ;# 
   509  0000                     # 11424 "C:\Program Files (x86)\Microchip\xc8\v2.00\pic\include\pic18f46k42.h"
   510                           IOCEF equ 03A87h ;# 
   511  0000                     # 11445 "C:\Program Files (x86)\Microchip\xc8\v2.00\pic\include\pic18f46k42.h"
   512                           CCDPE equ 03A88h ;# 
   513  0000                     # 11477 "C:\Program Files (x86)\Microchip\xc8\v2.00\pic\include\pic18f46k42.h"
   514                           CCDNE equ 03A89h ;# 
   515  0000                     # 11509 "C:\Program Files (x86)\Microchip\xc8\v2.00\pic\include\pic18f46k42.h"
   516                           CCDCON equ 03ABEh ;# 
   517  0000                     # 11565 "C:\Program Files (x86)\Microchip\xc8\v2.00\pic\include\pic18f46k42.h"
   518                           PPSLOCK equ 03ABFh ;# 
   519  0000                     # 11585 "C:\Program Files (x86)\Microchip\xc8\v2.00\pic\include\pic18f46k42.h"
   520                           INT0PPS equ 03AC0h ;# 
   521  0000                     # 11605 "C:\Program Files (x86)\Microchip\xc8\v2.00\pic\include\pic18f46k42.h"
   522                           INT1PPS equ 03AC1h ;# 
   523  0000                     # 11625 "C:\Program Files (x86)\Microchip\xc8\v2.00\pic\include\pic18f46k42.h"
   524                           INT2PPS equ 03AC2h ;# 
   525  0000                     # 11645 "C:\Program Files (x86)\Microchip\xc8\v2.00\pic\include\pic18f46k42.h"
   526                           T0CKIPPS equ 03AC3h ;# 
   527  0000                     # 11665 "C:\Program Files (x86)\Microchip\xc8\v2.00\pic\include\pic18f46k42.h"
   528                           T1CKIPPS equ 03AC4h ;# 
   529  0000                     # 11685 "C:\Program Files (x86)\Microchip\xc8\v2.00\pic\include\pic18f46k42.h"
   530                           T1GPPS equ 03AC5h ;# 
   531  0000                     # 11705 "C:\Program Files (x86)\Microchip\xc8\v2.00\pic\include\pic18f46k42.h"
   532                           T3CKIPPS equ 03AC6h ;# 
   533  0000                     # 11725 "C:\Program Files (x86)\Microchip\xc8\v2.00\pic\include\pic18f46k42.h"
   534                           T3GPPS equ 03AC7h ;# 
   535  0000                     # 11745 "C:\Program Files (x86)\Microchip\xc8\v2.00\pic\include\pic18f46k42.h"
   536                           T5CKIPPS equ 03AC8h ;# 
   537  0000                     # 11765 "C:\Program Files (x86)\Microchip\xc8\v2.00\pic\include\pic18f46k42.h"
   538                           T5GPPS equ 03AC9h ;# 
   539  0000                     # 11785 "C:\Program Files (x86)\Microchip\xc8\v2.00\pic\include\pic18f46k42.h"
   540                           T2INPPS equ 03ACAh ;# 
   541  0000                     # 11805 "C:\Program Files (x86)\Microchip\xc8\v2.00\pic\include\pic18f46k42.h"
   542                           T4INPPS equ 03ACBh ;# 
   543  0000                     # 11825 "C:\Program Files (x86)\Microchip\xc8\v2.00\pic\include\pic18f46k42.h"
   544                           T6INPPS equ 03ACCh ;# 
   545  0000                     # 11845 "C:\Program Files (x86)\Microchip\xc8\v2.00\pic\include\pic18f46k42.h"
   546                           CCP1PPS equ 03ACDh ;# 
   547  0000                     # 11865 "C:\Program Files (x86)\Microchip\xc8\v2.00\pic\include\pic18f46k42.h"
   548                           CCP2PPS equ 03ACEh ;# 
   549  0000                     # 11885 "C:\Program Files (x86)\Microchip\xc8\v2.00\pic\include\pic18f46k42.h"
   550                           CCP3PPS equ 03ACFh ;# 
   551  0000                     # 11905 "C:\Program Files (x86)\Microchip\xc8\v2.00\pic\include\pic18f46k42.h"
   552                           CCP4PPS equ 03AD0h ;# 
   553  0000                     # 11925 "C:\Program Files (x86)\Microchip\xc8\v2.00\pic\include\pic18f46k42.h"
   554                           SMT1WINPPS equ 03AD1h ;# 
   555  0000                     # 11945 "C:\Program Files (x86)\Microchip\xc8\v2.00\pic\include\pic18f46k42.h"
   556                           SMT1SIGPPS equ 03AD2h ;# 
   557  0000                     # 11965 "C:\Program Files (x86)\Microchip\xc8\v2.00\pic\include\pic18f46k42.h"
   558                           CWG1INPPS equ 03AD3h ;# 
   559  0000                     # 11985 "C:\Program Files (x86)\Microchip\xc8\v2.00\pic\include\pic18f46k42.h"
   560                           CWG2INPPS equ 03AD4h ;# 
   561  0000                     # 12005 "C:\Program Files (x86)\Microchip\xc8\v2.00\pic\include\pic18f46k42.h"
   562                           CWG3INPPS equ 03AD5h ;# 
   563  0000                     # 12025 "C:\Program Files (x86)\Microchip\xc8\v2.00\pic\include\pic18f46k42.h"
   564                           MD1CARLPPS equ 03AD6h ;# 
   565  0000                     # 12045 "C:\Program Files (x86)\Microchip\xc8\v2.00\pic\include\pic18f46k42.h"
   566                           MD1CARHPPS equ 03AD7h ;# 
   567  0000                     # 12065 "C:\Program Files (x86)\Microchip\xc8\v2.00\pic\include\pic18f46k42.h"
   568                           MD1SRCPPS equ 03AD8h ;# 
   569  0000                     # 12085 "C:\Program Files (x86)\Microchip\xc8\v2.00\pic\include\pic18f46k42.h"
   570                           CLCIN0PPS equ 03AD9h ;# 
   571  0000                     # 12105 "C:\Program Files (x86)\Microchip\xc8\v2.00\pic\include\pic18f46k42.h"
   572                           CLCIN1PPS equ 03ADAh ;# 
   573  0000                     # 12125 "C:\Program Files (x86)\Microchip\xc8\v2.00\pic\include\pic18f46k42.h"
   574                           CLCIN2PPS equ 03ADBh ;# 
   575  0000                     # 12145 "C:\Program Files (x86)\Microchip\xc8\v2.00\pic\include\pic18f46k42.h"
   576                           CLCIN3PPS equ 03ADCh ;# 
   577  0000                     # 12165 "C:\Program Files (x86)\Microchip\xc8\v2.00\pic\include\pic18f46k42.h"
   578                           ADACTPPS equ 03ADDh ;# 
   579  0000                     # 12185 "C:\Program Files (x86)\Microchip\xc8\v2.00\pic\include\pic18f46k42.h"
   580                           SPI1SCKPPS equ 03ADEh ;# 
   581  0000                     # 12205 "C:\Program Files (x86)\Microchip\xc8\v2.00\pic\include\pic18f46k42.h"
   582                           SPI1SDIPPS equ 03ADFh ;# 
   583  0000                     # 12225 "C:\Program Files (x86)\Microchip\xc8\v2.00\pic\include\pic18f46k42.h"
   584                           SPI1SSPPS equ 03AE0h ;# 
   585  0000                     # 12245 "C:\Program Files (x86)\Microchip\xc8\v2.00\pic\include\pic18f46k42.h"
   586                           I2C1SCLPPS equ 03AE1h ;# 
   587  0000                     # 12265 "C:\Program Files (x86)\Microchip\xc8\v2.00\pic\include\pic18f46k42.h"
   588                           I2C1SDAPPS equ 03AE2h ;# 
   589  0000                     # 12285 "C:\Program Files (x86)\Microchip\xc8\v2.00\pic\include\pic18f46k42.h"
   590                           I2C2SCLPPS equ 03AE3h ;# 
   591  0000                     # 12305 "C:\Program Files (x86)\Microchip\xc8\v2.00\pic\include\pic18f46k42.h"
   592                           I2C2SDAPPS equ 03AE4h ;# 
   593  0000                     # 12325 "C:\Program Files (x86)\Microchip\xc8\v2.00\pic\include\pic18f46k42.h"
   594                           U1RXPPS equ 03AE5h ;# 
   595  0000                     # 12345 "C:\Program Files (x86)\Microchip\xc8\v2.00\pic\include\pic18f46k42.h"
   596                           U1CTSPPS equ 03AE6h ;# 
   597  0000                     # 12365 "C:\Program Files (x86)\Microchip\xc8\v2.00\pic\include\pic18f46k42.h"
   598                           U2RXPPS equ 03AE8h ;# 
   599  0000                     # 12385 "C:\Program Files (x86)\Microchip\xc8\v2.00\pic\include\pic18f46k42.h"
   600                           U2CTSPPS equ 03AE9h ;# 
   601  0000                     # 12405 "C:\Program Files (x86)\Microchip\xc8\v2.00\pic\include\pic18f46k42.h"
   602                           DMA2BUF equ 03BC9h ;# 
   603  0000                     # 12533 "C:\Program Files (x86)\Microchip\xc8\v2.00\pic\include\pic18f46k42.h"
   604                           DMA2DCNT equ 03BCAh ;# 
   605  0000                     # 12540 "C:\Program Files (x86)\Microchip\xc8\v2.00\pic\include\pic18f46k42.h"
   606                           DMA2DCNTL equ 03BCAh ;# 
   607  0000                     # 12668 "C:\Program Files (x86)\Microchip\xc8\v2.00\pic\include\pic18f46k42.h"
   608                           DMA2DCNTH equ 03BCBh ;# 
   609  0000                     # 12748 "C:\Program Files (x86)\Microchip\xc8\v2.00\pic\include\pic18f46k42.h"
   610                           DMA2DPTR equ 03BCCh ;# 
   611  0000                     # 12755 "C:\Program Files (x86)\Microchip\xc8\v2.00\pic\include\pic18f46k42.h"
   612                           DMA2DPTRL equ 03BCCh ;# 
   613  0000                     # 12883 "C:\Program Files (x86)\Microchip\xc8\v2.00\pic\include\pic18f46k42.h"
   614                           DMA2DPTRH equ 03BCDh ;# 
   615  0000                     # 13011 "C:\Program Files (x86)\Microchip\xc8\v2.00\pic\include\pic18f46k42.h"
   616                           DMA2DSZ equ 03BCEh ;# 
   617  0000                     # 13018 "C:\Program Files (x86)\Microchip\xc8\v2.00\pic\include\pic18f46k42.h"
   618                           DMA2DSZL equ 03BCEh ;# 
   619  0000                     # 13146 "C:\Program Files (x86)\Microchip\xc8\v2.00\pic\include\pic18f46k42.h"
   620                           DMA2DSZH equ 03BCFh ;# 
   621  0000                     # 13226 "C:\Program Files (x86)\Microchip\xc8\v2.00\pic\include\pic18f46k42.h"
   622                           DMA2DSA equ 03BD0h ;# 
   623  0000                     # 13233 "C:\Program Files (x86)\Microchip\xc8\v2.00\pic\include\pic18f46k42.h"
   624                           DMA2DSAL equ 03BD0h ;# 
   625  0000                     # 13361 "C:\Program Files (x86)\Microchip\xc8\v2.00\pic\include\pic18f46k42.h"
   626                           DMA2DSAH equ 03BD1h ;# 
   627  0000                     # 13489 "C:\Program Files (x86)\Microchip\xc8\v2.00\pic\include\pic18f46k42.h"
   628                           DMA2SCNT equ 03BD2h ;# 
   629  0000                     # 13496 "C:\Program Files (x86)\Microchip\xc8\v2.00\pic\include\pic18f46k42.h"
   630                           DMA2SCNTL equ 03BD2h ;# 
   631  0000                     # 13624 "C:\Program Files (x86)\Microchip\xc8\v2.00\pic\include\pic18f46k42.h"
   632                           DMA2SCNTH equ 03BD3h ;# 
   633  0000                     # 13706 "C:\Program Files (x86)\Microchip\xc8\v2.00\pic\include\pic18f46k42.h"
   634                           DMA2SPTR equ 03BD4h ;# 
   635  0000                     # 13713 "C:\Program Files (x86)\Microchip\xc8\v2.00\pic\include\pic18f46k42.h"
   636                           DMA2SPTRL equ 03BD4h ;# 
   637  0000                     # 13841 "C:\Program Files (x86)\Microchip\xc8\v2.00\pic\include\pic18f46k42.h"
   638                           DMA2SPTRH equ 03BD5h ;# 
   639  0000                     # 13969 "C:\Program Files (x86)\Microchip\xc8\v2.00\pic\include\pic18f46k42.h"
   640                           DMA2SPTRU equ 03BD6h ;# 
   641  0000                     # 14073 "C:\Program Files (x86)\Microchip\xc8\v2.00\pic\include\pic18f46k42.h"
   642                           DMA2SSZ equ 03BD7h ;# 
   643  0000                     # 14080 "C:\Program Files (x86)\Microchip\xc8\v2.00\pic\include\pic18f46k42.h"
   644                           DMA2SSZL equ 03BD7h ;# 
   645  0000                     # 14208 "C:\Program Files (x86)\Microchip\xc8\v2.00\pic\include\pic18f46k42.h"
   646                           DMA2SSZH equ 03BD8h ;# 
   647  0000                     # 14290 "C:\Program Files (x86)\Microchip\xc8\v2.00\pic\include\pic18f46k42.h"
   648                           DMA2SSA equ 03BD9h ;# 
   649  0000                     # 14297 "C:\Program Files (x86)\Microchip\xc8\v2.00\pic\include\pic18f46k42.h"
   650                           DMA2SSAL equ 03BD9h ;# 
   651  0000                     # 14425 "C:\Program Files (x86)\Microchip\xc8\v2.00\pic\include\pic18f46k42.h"
   652                           DMA2SSAH equ 03BDAh ;# 
   653  0000                     # 14553 "C:\Program Files (x86)\Microchip\xc8\v2.00\pic\include\pic18f46k42.h"
   654                           DMA2SSAU equ 03BDBh ;# 
   655  0000                     # 14657 "C:\Program Files (x86)\Microchip\xc8\v2.00\pic\include\pic18f46k42.h"
   656                           DMA2CON0 equ 03BDCh ;# 
   657  0000                     # 14737 "C:\Program Files (x86)\Microchip\xc8\v2.00\pic\include\pic18f46k42.h"
   658                           DMA2CON1 equ 03BDDh ;# 
   659  0000                     # 14781 "C:\Program Files (x86)\Microchip\xc8\v2.00\pic\include\pic18f46k42.h"
   660                           DMA2AIRQ equ 03BDEh ;# 
   661  0000                     # 14897 "C:\Program Files (x86)\Microchip\xc8\v2.00\pic\include\pic18f46k42.h"
   662                           DMA2SIRQ equ 03BDFh ;# 
   663  0000                     # 15013 "C:\Program Files (x86)\Microchip\xc8\v2.00\pic\include\pic18f46k42.h"
   664                           DMA1BUF equ 03BE9h ;# 
   665  0000                     # 15141 "C:\Program Files (x86)\Microchip\xc8\v2.00\pic\include\pic18f46k42.h"
   666                           DMA1DCNT equ 03BEAh ;# 
   667  0000                     # 15148 "C:\Program Files (x86)\Microchip\xc8\v2.00\pic\include\pic18f46k42.h"
   668                           DMA1DCNTL equ 03BEAh ;# 
   669  0000                     # 15276 "C:\Program Files (x86)\Microchip\xc8\v2.00\pic\include\pic18f46k42.h"
   670                           DMA1DCNTH equ 03BEBh ;# 
   671  0000                     # 15356 "C:\Program Files (x86)\Microchip\xc8\v2.00\pic\include\pic18f46k42.h"
   672                           DMA1DPTR equ 03BECh ;# 
   673  0000                     # 15363 "C:\Program Files (x86)\Microchip\xc8\v2.00\pic\include\pic18f46k42.h"
   674                           DMA1DPTRL equ 03BECh ;# 
   675  0000                     # 15491 "C:\Program Files (x86)\Microchip\xc8\v2.00\pic\include\pic18f46k42.h"
   676                           DMA1DPTRH equ 03BEDh ;# 
   677  0000                     # 15619 "C:\Program Files (x86)\Microchip\xc8\v2.00\pic\include\pic18f46k42.h"
   678                           DMA1DSZ equ 03BEEh ;# 
   679  0000                     # 15626 "C:\Program Files (x86)\Microchip\xc8\v2.00\pic\include\pic18f46k42.h"
   680                           DMA1DSZL equ 03BEEh ;# 
   681  0000                     # 15754 "C:\Program Files (x86)\Microchip\xc8\v2.00\pic\include\pic18f46k42.h"
   682                           DMA1DSZH equ 03BEFh ;# 
   683  0000                     # 15834 "C:\Program Files (x86)\Microchip\xc8\v2.00\pic\include\pic18f46k42.h"
   684                           DMA1DSA equ 03BF0h ;# 
   685  0000                     # 15841 "C:\Program Files (x86)\Microchip\xc8\v2.00\pic\include\pic18f46k42.h"
   686                           DMA1DSAL equ 03BF0h ;# 
   687  0000                     # 15969 "C:\Program Files (x86)\Microchip\xc8\v2.00\pic\include\pic18f46k42.h"
   688                           DMA1DSAH equ 03BF1h ;# 
   689  0000                     # 16097 "C:\Program Files (x86)\Microchip\xc8\v2.00\pic\include\pic18f46k42.h"
   690                           DMA1SCNT equ 03BF2h ;# 
   691  0000                     # 16104 "C:\Program Files (x86)\Microchip\xc8\v2.00\pic\include\pic18f46k42.h"
   692                           DMA1SCNTL equ 03BF2h ;# 
   693  0000                     # 16232 "C:\Program Files (x86)\Microchip\xc8\v2.00\pic\include\pic18f46k42.h"
   694                           DMA1SCNTH equ 03BF3h ;# 
   695  0000                     # 16314 "C:\Program Files (x86)\Microchip\xc8\v2.00\pic\include\pic18f46k42.h"
   696                           DMA1SPTR equ 03BF4h ;# 
   697  0000                     # 16321 "C:\Program Files (x86)\Microchip\xc8\v2.00\pic\include\pic18f46k42.h"
   698                           DMA1SPTRL equ 03BF4h ;# 
   699  0000                     # 16449 "C:\Program Files (x86)\Microchip\xc8\v2.00\pic\include\pic18f46k42.h"
   700                           DMA1SPTRH equ 03BF5h ;# 
   701  0000                     # 16577 "C:\Program Files (x86)\Microchip\xc8\v2.00\pic\include\pic18f46k42.h"
   702                           DMA1SPTRU equ 03BF6h ;# 
   703  0000                     # 16681 "C:\Program Files (x86)\Microchip\xc8\v2.00\pic\include\pic18f46k42.h"
   704                           DMA1SSZ equ 03BF7h ;# 
   705  0000                     # 16688 "C:\Program Files (x86)\Microchip\xc8\v2.00\pic\include\pic18f46k42.h"
   706                           DMA1SSZL equ 03BF7h ;# 
   707  0000                     # 16816 "C:\Program Files (x86)\Microchip\xc8\v2.00\pic\include\pic18f46k42.h"
   708                           DMA1SSZH equ 03BF8h ;# 
   709  0000                     # 16898 "C:\Program Files (x86)\Microchip\xc8\v2.00\pic\include\pic18f46k42.h"
   710                           DMA1SSA equ 03BF9h ;# 
   711  0000                     # 16905 "C:\Program Files (x86)\Microchip\xc8\v2.00\pic\include\pic18f46k42.h"
   712                           DMA1SSAL equ 03BF9h ;# 
   713  0000                     # 17033 "C:\Program Files (x86)\Microchip\xc8\v2.00\pic\include\pic18f46k42.h"
   714                           DMA1SSAH equ 03BFAh ;# 
   715  0000                     # 17161 "C:\Program Files (x86)\Microchip\xc8\v2.00\pic\include\pic18f46k42.h"
   716                           DMA1SSAU equ 03BFBh ;# 
   717  0000                     # 17265 "C:\Program Files (x86)\Microchip\xc8\v2.00\pic\include\pic18f46k42.h"
   718                           DMA1CON0 equ 03BFCh ;# 
   719  0000                     # 17345 "C:\Program Files (x86)\Microchip\xc8\v2.00\pic\include\pic18f46k42.h"
   720                           DMA1CON1 equ 03BFDh ;# 
   721  0000                     # 17389 "C:\Program Files (x86)\Microchip\xc8\v2.00\pic\include\pic18f46k42.h"
   722                           DMA1AIRQ equ 03BFEh ;# 
   723  0000                     # 17505 "C:\Program Files (x86)\Microchip\xc8\v2.00\pic\include\pic18f46k42.h"
   724                           DMA1SIRQ equ 03BFFh ;# 
   725  0000                     # 17621 "C:\Program Files (x86)\Microchip\xc8\v2.00\pic\include\pic18f46k42.h"
   726                           CLC4CON equ 03C56h ;# 
   727  0000                     # 17749 "C:\Program Files (x86)\Microchip\xc8\v2.00\pic\include\pic18f46k42.h"
   728                           CLC4POL equ 03C57h ;# 
   729  0000                     # 17827 "C:\Program Files (x86)\Microchip\xc8\v2.00\pic\include\pic18f46k42.h"
   730                           CLC4SEL0 equ 03C58h ;# 
   731  0000                     # 17955 "C:\Program Files (x86)\Microchip\xc8\v2.00\pic\include\pic18f46k42.h"
   732                           CLC4SEL1 equ 03C59h ;# 
   733  0000                     # 18083 "C:\Program Files (x86)\Microchip\xc8\v2.00\pic\include\pic18f46k42.h"
   734                           CLC4SEL2 equ 03C5Ah ;# 
   735  0000                     # 18211 "C:\Program Files (x86)\Microchip\xc8\v2.00\pic\include\pic18f46k42.h"
   736                           CLC4SEL3 equ 03C5Bh ;# 
   737  0000                     # 18339 "C:\Program Files (x86)\Microchip\xc8\v2.00\pic\include\pic18f46k42.h"
   738                           CLC4GLS0 equ 03C5Ch ;# 
   739  0000                     # 18451 "C:\Program Files (x86)\Microchip\xc8\v2.00\pic\include\pic18f46k42.h"
   740                           CLC4GLS1 equ 03C5Dh ;# 
   741  0000                     # 18563 "C:\Program Files (x86)\Microchip\xc8\v2.00\pic\include\pic18f46k42.h"
   742                           CLC4GLS2 equ 03C5Eh ;# 
   743  0000                     # 18675 "C:\Program Files (x86)\Microchip\xc8\v2.00\pic\include\pic18f46k42.h"
   744                           CLC4GLS3 equ 03C5Fh ;# 
   745  0000                     # 18787 "C:\Program Files (x86)\Microchip\xc8\v2.00\pic\include\pic18f46k42.h"
   746                           CLC3CON equ 03C60h ;# 
   747  0000                     # 18915 "C:\Program Files (x86)\Microchip\xc8\v2.00\pic\include\pic18f46k42.h"
   748                           CLC3POL equ 03C61h ;# 
   749  0000                     # 18993 "C:\Program Files (x86)\Microchip\xc8\v2.00\pic\include\pic18f46k42.h"
   750                           CLC3SEL0 equ 03C62h ;# 
   751  0000                     # 19121 "C:\Program Files (x86)\Microchip\xc8\v2.00\pic\include\pic18f46k42.h"
   752                           CLC3SEL1 equ 03C63h ;# 
   753  0000                     # 19249 "C:\Program Files (x86)\Microchip\xc8\v2.00\pic\include\pic18f46k42.h"
   754                           CLC3SEL2 equ 03C64h ;# 
   755  0000                     # 19377 "C:\Program Files (x86)\Microchip\xc8\v2.00\pic\include\pic18f46k42.h"
   756                           CLC3SEL3 equ 03C65h ;# 
   757  0000                     # 19505 "C:\Program Files (x86)\Microchip\xc8\v2.00\pic\include\pic18f46k42.h"
   758                           CLC3GLS0 equ 03C66h ;# 
   759  0000                     # 19617 "C:\Program Files (x86)\Microchip\xc8\v2.00\pic\include\pic18f46k42.h"
   760                           CLC3GLS1 equ 03C67h ;# 
   761  0000                     # 19729 "C:\Program Files (x86)\Microchip\xc8\v2.00\pic\include\pic18f46k42.h"
   762                           CLC3GLS2 equ 03C68h ;# 
   763  0000                     # 19841 "C:\Program Files (x86)\Microchip\xc8\v2.00\pic\include\pic18f46k42.h"
   764                           CLC3GLS3 equ 03C69h ;# 
   765  0000                     # 19953 "C:\Program Files (x86)\Microchip\xc8\v2.00\pic\include\pic18f46k42.h"
   766                           CLC2CON equ 03C6Ah ;# 
   767  0000                     # 20081 "C:\Program Files (x86)\Microchip\xc8\v2.00\pic\include\pic18f46k42.h"
   768                           CLC2POL equ 03C6Bh ;# 
   769  0000                     # 20159 "C:\Program Files (x86)\Microchip\xc8\v2.00\pic\include\pic18f46k42.h"
   770                           CLC2SEL0 equ 03C6Ch ;# 
   771  0000                     # 20287 "C:\Program Files (x86)\Microchip\xc8\v2.00\pic\include\pic18f46k42.h"
   772                           CLC2SEL1 equ 03C6Dh ;# 
   773  0000                     # 20415 "C:\Program Files (x86)\Microchip\xc8\v2.00\pic\include\pic18f46k42.h"
   774                           CLC2SEL2 equ 03C6Eh ;# 
   775  0000                     # 20543 "C:\Program Files (x86)\Microchip\xc8\v2.00\pic\include\pic18f46k42.h"
   776                           CLC2SEL3 equ 03C6Fh ;# 
   777  0000                     # 20671 "C:\Program Files (x86)\Microchip\xc8\v2.00\pic\include\pic18f46k42.h"
   778                           CLC2GLS0 equ 03C70h ;# 
   779  0000                     # 20783 "C:\Program Files (x86)\Microchip\xc8\v2.00\pic\include\pic18f46k42.h"
   780                           CLC2GLS1 equ 03C71h ;# 
   781  0000                     # 20895 "C:\Program Files (x86)\Microchip\xc8\v2.00\pic\include\pic18f46k42.h"
   782                           CLC2GLS2 equ 03C72h ;# 
   783  0000                     # 21007 "C:\Program Files (x86)\Microchip\xc8\v2.00\pic\include\pic18f46k42.h"
   784                           CLC2GLS3 equ 03C73h ;# 
   785  0000                     # 21119 "C:\Program Files (x86)\Microchip\xc8\v2.00\pic\include\pic18f46k42.h"
   786                           CLC1CON equ 03C74h ;# 
   787  0000                     # 21247 "C:\Program Files (x86)\Microchip\xc8\v2.00\pic\include\pic18f46k42.h"
   788                           CLC1POL equ 03C75h ;# 
   789  0000                     # 21325 "C:\Program Files (x86)\Microchip\xc8\v2.00\pic\include\pic18f46k42.h"
   790                           CLC1SEL0 equ 03C76h ;# 
   791  0000                     # 21453 "C:\Program Files (x86)\Microchip\xc8\v2.00\pic\include\pic18f46k42.h"
   792                           CLC1SEL1 equ 03C77h ;# 
   793  0000                     # 21581 "C:\Program Files (x86)\Microchip\xc8\v2.00\pic\include\pic18f46k42.h"
   794                           CLC1SEL2 equ 03C78h ;# 
   795  0000                     # 21709 "C:\Program Files (x86)\Microchip\xc8\v2.00\pic\include\pic18f46k42.h"
   796                           CLC1SEL3 equ 03C79h ;# 
   797  0000                     # 21837 "C:\Program Files (x86)\Microchip\xc8\v2.00\pic\include\pic18f46k42.h"
   798                           CLC1GLS0 equ 03C7Ah ;# 
   799  0000                     # 21949 "C:\Program Files (x86)\Microchip\xc8\v2.00\pic\include\pic18f46k42.h"
   800                           CLC1GLS1 equ 03C7Bh ;# 
   801  0000                     # 22061 "C:\Program Files (x86)\Microchip\xc8\v2.00\pic\include\pic18f46k42.h"
   802                           CLC1GLS2 equ 03C7Ch ;# 
   803  0000                     # 22173 "C:\Program Files (x86)\Microchip\xc8\v2.00\pic\include\pic18f46k42.h"
   804                           CLC1GLS3 equ 03C7Dh ;# 
   805  0000                     # 22285 "C:\Program Files (x86)\Microchip\xc8\v2.00\pic\include\pic18f46k42.h"
   806                           CLCDATA0 equ 03C7Eh ;# 
   807  0000                     # 22323 "C:\Program Files (x86)\Microchip\xc8\v2.00\pic\include\pic18f46k42.h"
   808                           CLKRCON equ 03CE5h ;# 
   809  0000                     # 22409 "C:\Program Files (x86)\Microchip\xc8\v2.00\pic\include\pic18f46k42.h"
   810                           CLKRCLK equ 03CE6h ;# 
   811  0000                     # 22489 "C:\Program Files (x86)\Microchip\xc8\v2.00\pic\include\pic18f46k42.h"
   812                           MD1CON0 equ 03CFAh ;# 
   813  0000                     # 22557 "C:\Program Files (x86)\Microchip\xc8\v2.00\pic\include\pic18f46k42.h"
   814                           MD1CON1 equ 03CFBh ;# 
   815  0000                     # 22623 "C:\Program Files (x86)\Microchip\xc8\v2.00\pic\include\pic18f46k42.h"
   816                           MD1SRC equ 03CFCh ;# 
   817  0000                     # 22715 "C:\Program Files (x86)\Microchip\xc8\v2.00\pic\include\pic18f46k42.h"
   818                           MD1CARL equ 03CFDh ;# 
   819  0000                     # 22807 "C:\Program Files (x86)\Microchip\xc8\v2.00\pic\include\pic18f46k42.h"
   820                           MD1CARH equ 03CFEh ;# 
   821  0000                     # 22899 "C:\Program Files (x86)\Microchip\xc8\v2.00\pic\include\pic18f46k42.h"
   822                           SPI1RXB equ 03D10h ;# 
   823  0000                     # 22969 "C:\Program Files (x86)\Microchip\xc8\v2.00\pic\include\pic18f46k42.h"
   824                           SPI1TXB equ 03D11h ;# 
   825  0000                     # 23039 "C:\Program Files (x86)\Microchip\xc8\v2.00\pic\include\pic18f46k42.h"
   826                           SPI1TCNT equ 03D12h ;# 
   827  0000                     # 23046 "C:\Program Files (x86)\Microchip\xc8\v2.00\pic\include\pic18f46k42.h"
   828                           SPI1TCNTL equ 03D12h ;# 
   829  0000                     # 23066 "C:\Program Files (x86)\Microchip\xc8\v2.00\pic\include\pic18f46k42.h"
   830                           SPI1TCNTH equ 03D13h ;# 
   831  0000                     # 23086 "C:\Program Files (x86)\Microchip\xc8\v2.00\pic\include\pic18f46k42.h"
   832                           SPI1CON0 equ 03D14h ;# 
   833  0000                     # 23152 "C:\Program Files (x86)\Microchip\xc8\v2.00\pic\include\pic18f46k42.h"
   834                           SPI1CON1 equ 03D15h ;# 
   835  0000                     # 23254 "C:\Program Files (x86)\Microchip\xc8\v2.00\pic\include\pic18f46k42.h"
   836                           SPI1CON2 equ 03D16h ;# 
   837  0000                     # 23332 "C:\Program Files (x86)\Microchip\xc8\v2.00\pic\include\pic18f46k42.h"
   838                           SPI1STATUS equ 03D17h ;# 
   839  0000                     # 23414 "C:\Program Files (x86)\Microchip\xc8\v2.00\pic\include\pic18f46k42.h"
   840                           SPI1TWIDTH equ 03D18h ;# 
   841  0000                     # 23454 "C:\Program Files (x86)\Microchip\xc8\v2.00\pic\include\pic18f46k42.h"
   842                           SPI1BAUD equ 03D19h ;# 
   843  0000                     # 23524 "C:\Program Files (x86)\Microchip\xc8\v2.00\pic\include\pic18f46k42.h"
   844                           SPI1INTF equ 03D1Ah ;# 
   845  0000                     # 23616 "C:\Program Files (x86)\Microchip\xc8\v2.00\pic\include\pic18f46k42.h"
   846                           SPI1INTE equ 03D1Bh ;# 
   847  0000                     # 23708 "C:\Program Files (x86)\Microchip\xc8\v2.00\pic\include\pic18f46k42.h"
   848                           SPI1CLK equ 03D1Ch ;# 
   849  0000                     # 23776 "C:\Program Files (x86)\Microchip\xc8\v2.00\pic\include\pic18f46k42.h"
   850                           I2C2RXB equ 03D54h ;# 
   851  0000                     # 23796 "C:\Program Files (x86)\Microchip\xc8\v2.00\pic\include\pic18f46k42.h"
   852                           I2C2TXB equ 03D55h ;# 
   853  0000                     # 23816 "C:\Program Files (x86)\Microchip\xc8\v2.00\pic\include\pic18f46k42.h"
   854                           I2C2CNT equ 03D56h ;# 
   855  0000                     # 23886 "C:\Program Files (x86)\Microchip\xc8\v2.00\pic\include\pic18f46k42.h"
   856                           I2C2ADB0 equ 03D57h ;# 
   857  0000                     # 23906 "C:\Program Files (x86)\Microchip\xc8\v2.00\pic\include\pic18f46k42.h"
   858                           I2C2ADB1 equ 03D58h ;# 
   859  0000                     # 23926 "C:\Program Files (x86)\Microchip\xc8\v2.00\pic\include\pic18f46k42.h"
   860                           I2C2ADR0 equ 03D59h ;# 
   861  0000                     # 23946 "C:\Program Files (x86)\Microchip\xc8\v2.00\pic\include\pic18f46k42.h"
   862                           I2C2ADR1 equ 03D5Ah ;# 
   863  0000                     # 23967 "C:\Program Files (x86)\Microchip\xc8\v2.00\pic\include\pic18f46k42.h"
   864                           I2C2ADR2 equ 03D5Bh ;# 
   865  0000                     # 23987 "C:\Program Files (x86)\Microchip\xc8\v2.00\pic\include\pic18f46k42.h"
   866                           I2C2ADR3 equ 03D5Ch ;# 
   867  0000                     # 24008 "C:\Program Files (x86)\Microchip\xc8\v2.00\pic\include\pic18f46k42.h"
   868                           I2C2CON0 equ 03D5Dh ;# 
   869  0000                     # 24085 "C:\Program Files (x86)\Microchip\xc8\v2.00\pic\include\pic18f46k42.h"
   870                           I2C2CON1 equ 03D5Eh ;# 
   871  0000                     # 24142 "C:\Program Files (x86)\Microchip\xc8\v2.00\pic\include\pic18f46k42.h"
   872                           I2C2CON2 equ 03D5Fh ;# 
   873  0000                     # 24218 "C:\Program Files (x86)\Microchip\xc8\v2.00\pic\include\pic18f46k42.h"
   874                           I2C2ERR equ 03D60h ;# 
   875  0000                     # 24308 "C:\Program Files (x86)\Microchip\xc8\v2.00\pic\include\pic18f46k42.h"
   876                           I2C2STAT0 equ 03D61h ;# 
   877  0000                     # 24398 "C:\Program Files (x86)\Microchip\xc8\v2.00\pic\include\pic18f46k42.h"
   878                           I2C2STAT1 equ 03D62h ;# 
   879  0000                     # 24445 "C:\Program Files (x86)\Microchip\xc8\v2.00\pic\include\pic18f46k42.h"
   880                           I2C2PIR equ 03D63h ;# 
   881  0000                     # 24547 "C:\Program Files (x86)\Microchip\xc8\v2.00\pic\include\pic18f46k42.h"
   882                           I2C2PIE equ 03D64h ;# 
   883  0000                     # 24649 "C:\Program Files (x86)\Microchip\xc8\v2.00\pic\include\pic18f46k42.h"
   884                           I2C2CLK equ 03D65h ;# 
   885  0000                     # 24729 "C:\Program Files (x86)\Microchip\xc8\v2.00\pic\include\pic18f46k42.h"
   886                           I2C2BTO equ 03D66h ;# 
   887  0000                     # 24797 "C:\Program Files (x86)\Microchip\xc8\v2.00\pic\include\pic18f46k42.h"
   888                           I2C1RXB equ 03D6Ah ;# 
   889  0000                     # 24817 "C:\Program Files (x86)\Microchip\xc8\v2.00\pic\include\pic18f46k42.h"
   890                           I2C1TXB equ 03D6Bh ;# 
   891  0000                     # 24837 "C:\Program Files (x86)\Microchip\xc8\v2.00\pic\include\pic18f46k42.h"
   892                           I2C1CNT equ 03D6Ch ;# 
   893  0000                     # 24907 "C:\Program Files (x86)\Microchip\xc8\v2.00\pic\include\pic18f46k42.h"
   894                           I2C1ADB0 equ 03D6Dh ;# 
   895  0000                     # 24927 "C:\Program Files (x86)\Microchip\xc8\v2.00\pic\include\pic18f46k42.h"
   896                           I2C1ADB1 equ 03D6Eh ;# 
   897  0000                     # 24947 "C:\Program Files (x86)\Microchip\xc8\v2.00\pic\include\pic18f46k42.h"
   898                           I2C1ADR0 equ 03D6Fh ;# 
   899  0000                     # 24967 "C:\Program Files (x86)\Microchip\xc8\v2.00\pic\include\pic18f46k42.h"
   900                           I2C1ADR1 equ 03D70h ;# 
   901  0000                     # 24988 "C:\Program Files (x86)\Microchip\xc8\v2.00\pic\include\pic18f46k42.h"
   902                           I2C1ADR2 equ 03D71h ;# 
   903  0000                     # 25008 "C:\Program Files (x86)\Microchip\xc8\v2.00\pic\include\pic18f46k42.h"
   904                           I2C1ADR3 equ 03D72h ;# 
   905  0000                     # 25029 "C:\Program Files (x86)\Microchip\xc8\v2.00\pic\include\pic18f46k42.h"
   906                           I2C1CON0 equ 03D73h ;# 
   907  0000                     # 25106 "C:\Program Files (x86)\Microchip\xc8\v2.00\pic\include\pic18f46k42.h"
   908                           I2C1CON1 equ 03D74h ;# 
   909  0000                     # 25163 "C:\Program Files (x86)\Microchip\xc8\v2.00\pic\include\pic18f46k42.h"
   910                           I2C1CON2 equ 03D75h ;# 
   911  0000                     # 25239 "C:\Program Files (x86)\Microchip\xc8\v2.00\pic\include\pic18f46k42.h"
   912                           I2C1ERR equ 03D76h ;# 
   913  0000                     # 25329 "C:\Program Files (x86)\Microchip\xc8\v2.00\pic\include\pic18f46k42.h"
   914                           I2C1STAT0 equ 03D77h ;# 
   915  0000                     # 25419 "C:\Program Files (x86)\Microchip\xc8\v2.00\pic\include\pic18f46k42.h"
   916                           I2C1STAT1 equ 03D78h ;# 
   917  0000                     # 25466 "C:\Program Files (x86)\Microchip\xc8\v2.00\pic\include\pic18f46k42.h"
   918                           I2C1PIR equ 03D79h ;# 
   919  0000                     # 25568 "C:\Program Files (x86)\Microchip\xc8\v2.00\pic\include\pic18f46k42.h"
   920                           I2C1PIE equ 03D7Ah ;# 
   921  0000                     # 25670 "C:\Program Files (x86)\Microchip\xc8\v2.00\pic\include\pic18f46k42.h"
   922                           I2C1CLK equ 03D7Bh ;# 
   923  0000                     # 25750 "C:\Program Files (x86)\Microchip\xc8\v2.00\pic\include\pic18f46k42.h"
   924                           I2C1BTO equ 03D7Ch ;# 
   925  0000                     # 25818 "C:\Program Files (x86)\Microchip\xc8\v2.00\pic\include\pic18f46k42.h"
   926                           U2RXB equ 03DD0h ;# 
   927  0000                     # 25823 "C:\Program Files (x86)\Microchip\xc8\v2.00\pic\include\pic18f46k42.h"
   928                           U2RXBL equ 03DD0h ;# 
   929  0000                     # 25856 "C:\Program Files (x86)\Microchip\xc8\v2.00\pic\include\pic18f46k42.h"
   930                           U2TXB equ 03DD2h ;# 
   931  0000                     # 25861 "C:\Program Files (x86)\Microchip\xc8\v2.00\pic\include\pic18f46k42.h"
   932                           U2TXBL equ 03DD2h ;# 
   933  0000                     # 25894 "C:\Program Files (x86)\Microchip\xc8\v2.00\pic\include\pic18f46k42.h"
   934                           U2P1 equ 03DD4h ;# 
   935  0000                     # 25901 "C:\Program Files (x86)\Microchip\xc8\v2.00\pic\include\pic18f46k42.h"
   936                           U2P1L equ 03DD4h ;# 
   937  0000                     # 25921 "C:\Program Files (x86)\Microchip\xc8\v2.00\pic\include\pic18f46k42.h"
   938                           U2P2 equ 03DD6h ;# 
   939  0000                     # 25928 "C:\Program Files (x86)\Microchip\xc8\v2.00\pic\include\pic18f46k42.h"
   940                           U2P2L equ 03DD6h ;# 
   941  0000                     # 25948 "C:\Program Files (x86)\Microchip\xc8\v2.00\pic\include\pic18f46k42.h"
   942                           U2P3 equ 03DD8h ;# 
   943  0000                     # 25955 "C:\Program Files (x86)\Microchip\xc8\v2.00\pic\include\pic18f46k42.h"
   944                           U2P3L equ 03DD8h ;# 
   945  0000                     # 25975 "C:\Program Files (x86)\Microchip\xc8\v2.00\pic\include\pic18f46k42.h"
   946                           U2CON0 equ 03DDAh ;# 
   947  0000                     # 26091 "C:\Program Files (x86)\Microchip\xc8\v2.00\pic\include\pic18f46k42.h"
   948                           U2CON1 equ 03DDBh ;# 
   949  0000                     # 26171 "C:\Program Files (x86)\Microchip\xc8\v2.00\pic\include\pic18f46k42.h"
   950                           U2CON2 equ 03DDCh ;# 
   951  0000                     # 26303 "C:\Program Files (x86)\Microchip\xc8\v2.00\pic\include\pic18f46k42.h"
   952                           U2BRG equ 03DDDh ;# 
   953  0000                     # 26310 "C:\Program Files (x86)\Microchip\xc8\v2.00\pic\include\pic18f46k42.h"
   954                           U2BRGL equ 03DDDh ;# 
   955  0000                     # 26330 "C:\Program Files (x86)\Microchip\xc8\v2.00\pic\include\pic18f46k42.h"
   956                           U2BRGH equ 03DDEh ;# 
   957  0000                     # 26350 "C:\Program Files (x86)\Microchip\xc8\v2.00\pic\include\pic18f46k42.h"
   958                           U2FIFO equ 03DDFh ;# 
   959  0000                     # 26480 "C:\Program Files (x86)\Microchip\xc8\v2.00\pic\include\pic18f46k42.h"
   960                           U2UIR equ 03DE0h ;# 
   961  0000                     # 26536 "C:\Program Files (x86)\Microchip\xc8\v2.00\pic\include\pic18f46k42.h"
   962                           U2ERRIR equ 03DE1h ;# 
   963  0000                     # 26648 "C:\Program Files (x86)\Microchip\xc8\v2.00\pic\include\pic18f46k42.h"
   964                           U2ERRIE equ 03DE2h ;# 
   965  0000                     # 26760 "C:\Program Files (x86)\Microchip\xc8\v2.00\pic\include\pic18f46k42.h"
   966                           U1RXB equ 03DE8h ;# 
   967  0000                     # 26765 "C:\Program Files (x86)\Microchip\xc8\v2.00\pic\include\pic18f46k42.h"
   968                           U1RXBL equ 03DE8h ;# 
   969  0000                     # 26798 "C:\Program Files (x86)\Microchip\xc8\v2.00\pic\include\pic18f46k42.h"
   970                           U1RXCHK equ 03DE9h ;# 
   971  0000                     # 26818 "C:\Program Files (x86)\Microchip\xc8\v2.00\pic\include\pic18f46k42.h"
   972                           U1TXB equ 03DEAh ;# 
   973  0000                     # 26823 "C:\Program Files (x86)\Microchip\xc8\v2.00\pic\include\pic18f46k42.h"
   974                           U1TXBL equ 03DEAh ;# 
   975  0000                     # 26856 "C:\Program Files (x86)\Microchip\xc8\v2.00\pic\include\pic18f46k42.h"
   976                           U1TXCHK equ 03DEBh ;# 
   977  0000                     # 26876 "C:\Program Files (x86)\Microchip\xc8\v2.00\pic\include\pic18f46k42.h"
   978                           U1P1 equ 03DECh ;# 
   979  0000                     # 26883 "C:\Program Files (x86)\Microchip\xc8\v2.00\pic\include\pic18f46k42.h"
   980                           U1P1L equ 03DECh ;# 
   981  0000                     # 26903 "C:\Program Files (x86)\Microchip\xc8\v2.00\pic\include\pic18f46k42.h"
   982                           U1P1H equ 03DEDh ;# 
   983  0000                     # 26923 "C:\Program Files (x86)\Microchip\xc8\v2.00\pic\include\pic18f46k42.h"
   984                           U1P2 equ 03DEEh ;# 
   985  0000                     # 26930 "C:\Program Files (x86)\Microchip\xc8\v2.00\pic\include\pic18f46k42.h"
   986                           U1P2L equ 03DEEh ;# 
   987  0000                     # 26950 "C:\Program Files (x86)\Microchip\xc8\v2.00\pic\include\pic18f46k42.h"
   988                           U1P2H equ 03DEFh ;# 
   989  0000                     # 26970 "C:\Program Files (x86)\Microchip\xc8\v2.00\pic\include\pic18f46k42.h"
   990                           U1P3 equ 03DF0h ;# 
   991  0000                     # 26977 "C:\Program Files (x86)\Microchip\xc8\v2.00\pic\include\pic18f46k42.h"
   992                           U1P3L equ 03DF0h ;# 
   993  0000                     # 26997 "C:\Program Files (x86)\Microchip\xc8\v2.00\pic\include\pic18f46k42.h"
   994                           U1P3H equ 03DF1h ;# 
   995  0000                     # 27017 "C:\Program Files (x86)\Microchip\xc8\v2.00\pic\include\pic18f46k42.h"
   996                           U1CON0 equ 03DF2h ;# 
   997  0000                     # 27133 "C:\Program Files (x86)\Microchip\xc8\v2.00\pic\include\pic18f46k42.h"
   998                           U1CON1 equ 03DF3h ;# 
   999  0000                     # 27213 "C:\Program Files (x86)\Microchip\xc8\v2.00\pic\include\pic18f46k42.h"
  1000                           U1CON2 equ 03DF4h ;# 
  1001  0000                     # 27355 "C:\Program Files (x86)\Microchip\xc8\v2.00\pic\include\pic18f46k42.h"
  1002                           U1BRG equ 03DF5h ;# 
  1003  0000                     # 27362 "C:\Program Files (x86)\Microchip\xc8\v2.00\pic\include\pic18f46k42.h"
  1004                           U1BRGL equ 03DF5h ;# 
  1005  0000                     # 27382 "C:\Program Files (x86)\Microchip\xc8\v2.00\pic\include\pic18f46k42.h"
  1006                           U1BRGH equ 03DF6h ;# 
  1007  0000                     # 27402 "C:\Program Files (x86)\Microchip\xc8\v2.00\pic\include\pic18f46k42.h"
  1008                           U1FIFO equ 03DF7h ;# 
  1009  0000                     # 27532 "C:\Program Files (x86)\Microchip\xc8\v2.00\pic\include\pic18f46k42.h"
  1010                           U1UIR equ 03DF8h ;# 
  1011  0000                     # 27588 "C:\Program Files (x86)\Microchip\xc8\v2.00\pic\include\pic18f46k42.h"
  1012                           U1ERRIR equ 03DF9h ;# 
  1013  0000                     # 27700 "C:\Program Files (x86)\Microchip\xc8\v2.00\pic\include\pic18f46k42.h"
  1014                           U1ERRIE equ 03DFAh ;# 
  1015  0000                     # 27812 "C:\Program Files (x86)\Microchip\xc8\v2.00\pic\include\pic18f46k42.h"
  1016                           DAC1CON1 equ 03E9Ch ;# 
  1017  0000                     # 27872 "C:\Program Files (x86)\Microchip\xc8\v2.00\pic\include\pic18f46k42.h"
  1018                           DAC1CON0 equ 03E9Eh ;# 
  1019  0000                     # 27973 "C:\Program Files (x86)\Microchip\xc8\v2.00\pic\include\pic18f46k42.h"
  1020                           CM2CON0 equ 03EB8h ;# 
  1021  0000                     # 28053 "C:\Program Files (x86)\Microchip\xc8\v2.00\pic\include\pic18f46k42.h"
  1022                           CM2CON1 equ 03EB9h ;# 
  1023  0000                     # 28093 "C:\Program Files (x86)\Microchip\xc8\v2.00\pic\include\pic18f46k42.h"
  1024                           CM2NCH equ 03EBAh ;# 
  1025  0000                     # 28153 "C:\Program Files (x86)\Microchip\xc8\v2.00\pic\include\pic18f46k42.h"
  1026                           CM2PCH equ 03EBBh ;# 
  1027  0000                     # 28213 "C:\Program Files (x86)\Microchip\xc8\v2.00\pic\include\pic18f46k42.h"
  1028                           CM1CON0 equ 03EBCh ;# 
  1029  0000                     # 28293 "C:\Program Files (x86)\Microchip\xc8\v2.00\pic\include\pic18f46k42.h"
  1030                           CM1CON1 equ 03EBDh ;# 
  1031  0000                     # 28333 "C:\Program Files (x86)\Microchip\xc8\v2.00\pic\include\pic18f46k42.h"
  1032                           CM1NCH equ 03EBEh ;# 
  1033  0000                     # 28393 "C:\Program Files (x86)\Microchip\xc8\v2.00\pic\include\pic18f46k42.h"
  1034                           CM1PCH equ 03EBFh ;# 
  1035  0000                     # 28453 "C:\Program Files (x86)\Microchip\xc8\v2.00\pic\include\pic18f46k42.h"
  1036                           CMOUT equ 03EC0h ;# 
  1037  0000                     # 28479 "C:\Program Files (x86)\Microchip\xc8\v2.00\pic\include\pic18f46k42.h"
  1038                           FVRCON equ 03EC1h ;# 
  1039  0000                     # 28568 "C:\Program Files (x86)\Microchip\xc8\v2.00\pic\include\pic18f46k42.h"
  1040                           ZCDCON equ 03EC3h ;# 
  1041  0000                     # 28648 "C:\Program Files (x86)\Microchip\xc8\v2.00\pic\include\pic18f46k42.h"
  1042                           HLVDCON0 equ 03EC9h ;# 
  1043  0000                     # 28728 "C:\Program Files (x86)\Microchip\xc8\v2.00\pic\include\pic18f46k42.h"
  1044                           HLVDCON1 equ 03ECAh ;# 
  1045  0000                     # 28800 "C:\Program Files (x86)\Microchip\xc8\v2.00\pic\include\pic18f46k42.h"
  1046                           ADCP equ 03ED7h ;# 
  1047  0000                     # 28851 "C:\Program Files (x86)\Microchip\xc8\v2.00\pic\include\pic18f46k42.h"
  1048                           ADLTH equ 03EDEh ;# 
  1049  0000                     # 28858 "C:\Program Files (x86)\Microchip\xc8\v2.00\pic\include\pic18f46k42.h"
  1050                           ADLTHL equ 03EDEh ;# 
  1051  0000                     # 28986 "C:\Program Files (x86)\Microchip\xc8\v2.00\pic\include\pic18f46k42.h"
  1052                           ADLTHH equ 03EDFh ;# 
  1053  0000                     # 29114 "C:\Program Files (x86)\Microchip\xc8\v2.00\pic\include\pic18f46k42.h"
  1054                           ADUTH equ 03EE0h ;# 
  1055  0000                     # 29121 "C:\Program Files (x86)\Microchip\xc8\v2.00\pic\include\pic18f46k42.h"
  1056                           ADUTHL equ 03EE0h ;# 
  1057  0000                     # 29249 "C:\Program Files (x86)\Microchip\xc8\v2.00\pic\include\pic18f46k42.h"
  1058                           ADUTHH equ 03EE1h ;# 
  1059  0000                     # 29377 "C:\Program Files (x86)\Microchip\xc8\v2.00\pic\include\pic18f46k42.h"
  1060                           ADERR equ 03EE2h ;# 
  1061  0000                     # 29384 "C:\Program Files (x86)\Microchip\xc8\v2.00\pic\include\pic18f46k42.h"
  1062                           ADERRL equ 03EE2h ;# 
  1063  0000                     # 29512 "C:\Program Files (x86)\Microchip\xc8\v2.00\pic\include\pic18f46k42.h"
  1064                           ADERRH equ 03EE3h ;# 
  1065  0000                     # 29640 "C:\Program Files (x86)\Microchip\xc8\v2.00\pic\include\pic18f46k42.h"
  1066                           ADSTPT equ 03EE4h ;# 
  1067  0000                     # 29647 "C:\Program Files (x86)\Microchip\xc8\v2.00\pic\include\pic18f46k42.h"
  1068                           ADSTPTL equ 03EE4h ;# 
  1069  0000                     # 29775 "C:\Program Files (x86)\Microchip\xc8\v2.00\pic\include\pic18f46k42.h"
  1070                           ADSTPTH equ 03EE5h ;# 
  1071  0000                     # 29903 "C:\Program Files (x86)\Microchip\xc8\v2.00\pic\include\pic18f46k42.h"
  1072                           ADFLTR equ 03EE6h ;# 
  1073  0000                     # 29910 "C:\Program Files (x86)\Microchip\xc8\v2.00\pic\include\pic18f46k42.h"
  1074                           ADFLTRL equ 03EE6h ;# 
  1075  0000                     # 30038 "C:\Program Files (x86)\Microchip\xc8\v2.00\pic\include\pic18f46k42.h"
  1076                           ADFLTRH equ 03EE7h ;# 
  1077  0000                     # 30168 "C:\Program Files (x86)\Microchip\xc8\v2.00\pic\include\pic18f46k42.h"
  1078                           ADACC equ 03EE8h ;# 
  1079  0000                     # 30175 "C:\Program Files (x86)\Microchip\xc8\v2.00\pic\include\pic18f46k42.h"
  1080                           ADACCL equ 03EE8h ;# 
  1081  0000                     # 30303 "C:\Program Files (x86)\Microchip\xc8\v2.00\pic\include\pic18f46k42.h"
  1082                           ADACCH equ 03EE9h ;# 
  1083  0000                     # 30431 "C:\Program Files (x86)\Microchip\xc8\v2.00\pic\include\pic18f46k42.h"
  1084                           ADACCU equ 03EEAh ;# 
  1085  0000                     # 30559 "C:\Program Files (x86)\Microchip\xc8\v2.00\pic\include\pic18f46k42.h"
  1086                           ADCNT equ 03EEBh ;# 
  1087  0000                     # 30687 "C:\Program Files (x86)\Microchip\xc8\v2.00\pic\include\pic18f46k42.h"
  1088                           ADRPT equ 03EECh ;# 
  1089  0000                     # 30815 "C:\Program Files (x86)\Microchip\xc8\v2.00\pic\include\pic18f46k42.h"
  1090                           ADPREV equ 03EEDh ;# 
  1091  0000                     # 30822 "C:\Program Files (x86)\Microchip\xc8\v2.00\pic\include\pic18f46k42.h"
  1092                           ADPREVL equ 03EEDh ;# 
  1093  0000                     # 30950 "C:\Program Files (x86)\Microchip\xc8\v2.00\pic\include\pic18f46k42.h"
  1094                           ADPREVH equ 03EEEh ;# 
  1095  0000                     # 31078 "C:\Program Files (x86)\Microchip\xc8\v2.00\pic\include\pic18f46k42.h"
  1096                           ADRES equ 03EEFh ;# 
  1097  0000                     # 31085 "C:\Program Files (x86)\Microchip\xc8\v2.00\pic\include\pic18f46k42.h"
  1098                           ADRESL equ 03EEFh ;# 
  1099  0000                     # 31213 "C:\Program Files (x86)\Microchip\xc8\v2.00\pic\include\pic18f46k42.h"
  1100                           ADRESH equ 03EF0h ;# 
  1101  0000                     # 31333 "C:\Program Files (x86)\Microchip\xc8\v2.00\pic\include\pic18f46k42.h"
  1102                           ADPCH equ 03EF1h ;# 
  1103  0000                     # 31391 "C:\Program Files (x86)\Microchip\xc8\v2.00\pic\include\pic18f46k42.h"
  1104                           ADACQ equ 03EF3h ;# 
  1105  0000                     # 31398 "C:\Program Files (x86)\Microchip\xc8\v2.00\pic\include\pic18f46k42.h"
  1106                           ADACQL equ 03EF3h ;# 
  1107  0000                     # 31526 "C:\Program Files (x86)\Microchip\xc8\v2.00\pic\include\pic18f46k42.h"
  1108                           ADACQH equ 03EF4h ;# 
  1109  0000                     # 31618 "C:\Program Files (x86)\Microchip\xc8\v2.00\pic\include\pic18f46k42.h"
  1110                           ADCAP equ 03EF5h ;# 
  1111  0000                     # 31670 "C:\Program Files (x86)\Microchip\xc8\v2.00\pic\include\pic18f46k42.h"
  1112                           ADPRE equ 03EF6h ;# 
  1113  0000                     # 31677 "C:\Program Files (x86)\Microchip\xc8\v2.00\pic\include\pic18f46k42.h"
  1114                           ADPREL equ 03EF6h ;# 
  1115  0000                     # 31805 "C:\Program Files (x86)\Microchip\xc8\v2.00\pic\include\pic18f46k42.h"
  1116                           ADPREH equ 03EF7h ;# 
  1117  0000                     # 31897 "C:\Program Files (x86)\Microchip\xc8\v2.00\pic\include\pic18f46k42.h"
  1118                           ADCON0 equ 03EF8h ;# 
  1119  0000                     # 32024 "C:\Program Files (x86)\Microchip\xc8\v2.00\pic\include\pic18f46k42.h"
  1120                           ADCON1 equ 03EF9h ;# 
  1121  0000                     # 32099 "C:\Program Files (x86)\Microchip\xc8\v2.00\pic\include\pic18f46k42.h"
  1122                           ADCON2 equ 03EFAh ;# 
  1123  0000                     # 32277 "C:\Program Files (x86)\Microchip\xc8\v2.00\pic\include\pic18f46k42.h"
  1124                           ADCON3 equ 03EFBh ;# 
  1125  0000                     # 32407 "C:\Program Files (x86)\Microchip\xc8\v2.00\pic\include\pic18f46k42.h"
  1126                           ADSTAT equ 03EFCh ;# 
  1127  0000                     # 32532 "C:\Program Files (x86)\Microchip\xc8\v2.00\pic\include\pic18f46k42.h"
  1128                           ADREF equ 03EFDh ;# 
  1129  0000                     # 32614 "C:\Program Files (x86)\Microchip\xc8\v2.00\pic\include\pic18f46k42.h"
  1130                           ADACT equ 03EFEh ;# 
  1131  0000                     # 32706 "C:\Program Files (x86)\Microchip\xc8\v2.00\pic\include\pic18f46k42.h"
  1132                           ADCLK equ 03EFFh ;# 
  1133  0000                     # 32812 "C:\Program Files (x86)\Microchip\xc8\v2.00\pic\include\pic18f46k42.h"
  1134                           SMT1TMR equ 03F12h ;# 
  1135  0000                     # 32819 "C:\Program Files (x86)\Microchip\xc8\v2.00\pic\include\pic18f46k42.h"
  1136                           SMT1TMRL equ 03F12h ;# 
  1137  0000                     # 32947 "C:\Program Files (x86)\Microchip\xc8\v2.00\pic\include\pic18f46k42.h"
  1138                           SMT1TMRH equ 03F13h ;# 
  1139  0000                     # 33075 "C:\Program Files (x86)\Microchip\xc8\v2.00\pic\include\pic18f46k42.h"
  1140                           SMT1TMRU equ 03F14h ;# 
  1141  0000                     # 33205 "C:\Program Files (x86)\Microchip\xc8\v2.00\pic\include\pic18f46k42.h"
  1142                           SMT1CPR equ 03F15h ;# 
  1143  0000                     # 33212 "C:\Program Files (x86)\Microchip\xc8\v2.00\pic\include\pic18f46k42.h"
  1144                           SMT1CPRL equ 03F15h ;# 
  1145  0000                     # 33340 "C:\Program Files (x86)\Microchip\xc8\v2.00\pic\include\pic18f46k42.h"
  1146                           SMT1CPRH equ 03F16h ;# 
  1147  0000                     # 33468 "C:\Program Files (x86)\Microchip\xc8\v2.00\pic\include\pic18f46k42.h"
  1148                           SMT1CPRU equ 03F17h ;# 
  1149  0000                     # 33598 "C:\Program Files (x86)\Microchip\xc8\v2.00\pic\include\pic18f46k42.h"
  1150                           SMT1CPW equ 03F18h ;# 
  1151  0000                     # 33605 "C:\Program Files (x86)\Microchip\xc8\v2.00\pic\include\pic18f46k42.h"
  1152                           SMT1CPWL equ 03F18h ;# 
  1153  0000                     # 33733 "C:\Program Files (x86)\Microchip\xc8\v2.00\pic\include\pic18f46k42.h"
  1154                           SMT1CPWH equ 03F19h ;# 
  1155  0000                     # 33861 "C:\Program Files (x86)\Microchip\xc8\v2.00\pic\include\pic18f46k42.h"
  1156                           SMT1CPWU equ 03F1Ah ;# 
  1157  0000                     # 33991 "C:\Program Files (x86)\Microchip\xc8\v2.00\pic\include\pic18f46k42.h"
  1158                           SMT1PR equ 03F1Bh ;# 
  1159  0000                     # 33998 "C:\Program Files (x86)\Microchip\xc8\v2.00\pic\include\pic18f46k42.h"
  1160                           SMT1PRL equ 03F1Bh ;# 
  1161  0000                     # 34126 "C:\Program Files (x86)\Microchip\xc8\v2.00\pic\include\pic18f46k42.h"
  1162                           SMT1PRH equ 03F1Ch ;# 
  1163  0000                     # 34254 "C:\Program Files (x86)\Microchip\xc8\v2.00\pic\include\pic18f46k42.h"
  1164                           SMT1PRU equ 03F1Dh ;# 
  1165  0000                     # 34382 "C:\Program Files (x86)\Microchip\xc8\v2.00\pic\include\pic18f46k42.h"
  1166                           SMT1CON0 equ 03F1Eh ;# 
  1167  0000                     # 34500 "C:\Program Files (x86)\Microchip\xc8\v2.00\pic\include\pic18f46k42.h"
  1168                           SMT1CON1 equ 03F1Fh ;# 
  1169  0000                     # 34580 "C:\Program Files (x86)\Microchip\xc8\v2.00\pic\include\pic18f46k42.h"
  1170                           SMT1STAT equ 03F20h ;# 
  1171  0000                     # 34679 "C:\Program Files (x86)\Microchip\xc8\v2.00\pic\include\pic18f46k42.h"
  1172                           SMT1CLK equ 03F21h ;# 
  1173  0000                     # 34747 "C:\Program Files (x86)\Microchip\xc8\v2.00\pic\include\pic18f46k42.h"
  1174                           SMT1SIG equ 03F22h ;# 
  1175  0000                     # 34839 "C:\Program Files (x86)\Microchip\xc8\v2.00\pic\include\pic18f46k42.h"
  1176                           SMT1WIN equ 03F23h ;# 
  1177  0000                     # 34933 "C:\Program Files (x86)\Microchip\xc8\v2.00\pic\include\pic18f46k42.h"
  1178                           NCO1ACC equ 03F38h ;# 
  1179  0000                     # 34940 "C:\Program Files (x86)\Microchip\xc8\v2.00\pic\include\pic18f46k42.h"
  1180                           NCO1ACCL equ 03F38h ;# 
  1181  0000                     # 35068 "C:\Program Files (x86)\Microchip\xc8\v2.00\pic\include\pic18f46k42.h"
  1182                           NCO1ACCH equ 03F39h ;# 
  1183  0000                     # 35196 "C:\Program Files (x86)\Microchip\xc8\v2.00\pic\include\pic18f46k42.h"
  1184                           NCO1ACCU equ 03F3Ah ;# 
  1185  0000                     # 35326 "C:\Program Files (x86)\Microchip\xc8\v2.00\pic\include\pic18f46k42.h"
  1186                           NCO1INC equ 03F3Bh ;# 
  1187  0000                     # 35333 "C:\Program Files (x86)\Microchip\xc8\v2.00\pic\include\pic18f46k42.h"
  1188                           NCO1INCL equ 03F3Bh ;# 
  1189  0000                     # 35461 "C:\Program Files (x86)\Microchip\xc8\v2.00\pic\include\pic18f46k42.h"
  1190                           NCO1INCH equ 03F3Ch ;# 
  1191  0000                     # 35589 "C:\Program Files (x86)\Microchip\xc8\v2.00\pic\include\pic18f46k42.h"
  1192                           NCO1INCU equ 03F3Dh ;# 
  1193  0000                     # 35717 "C:\Program Files (x86)\Microchip\xc8\v2.00\pic\include\pic18f46k42.h"
  1194                           NCO1CON equ 03F3Eh ;# 
  1195  0000                     # 35785 "C:\Program Files (x86)\Microchip\xc8\v2.00\pic\include\pic18f46k42.h"
  1196                           NCO1CLK equ 03F3Fh ;# 
  1197  0000                     # 35917 "C:\Program Files (x86)\Microchip\xc8\v2.00\pic\include\pic18f46k42.h"
  1198                           CWG3CLK equ 03F40h ;# 
  1199  0000                     # 35922 "C:\Program Files (x86)\Microchip\xc8\v2.00\pic\include\pic18f46k42.h"
  1200                           CWG3CLKCON equ 03F40h ;# 
  1201  0000                     # 35971 "C:\Program Files (x86)\Microchip\xc8\v2.00\pic\include\pic18f46k42.h"
  1202                           CWG3ISM equ 03F41h ;# 
  1203  0000                     # 36017 "C:\Program Files (x86)\Microchip\xc8\v2.00\pic\include\pic18f46k42.h"
  1204                           CWG3DBR equ 03F42h ;# 
  1205  0000                     # 36121 "C:\Program Files (x86)\Microchip\xc8\v2.00\pic\include\pic18f46k42.h"
  1206                           CWG3DBF equ 03F43h ;# 
  1207  0000                     # 36225 "C:\Program Files (x86)\Microchip\xc8\v2.00\pic\include\pic18f46k42.h"
  1208                           CWG3CON0 equ 03F44h ;# 
  1209  0000                     # 36326 "C:\Program Files (x86)\Microchip\xc8\v2.00\pic\include\pic18f46k42.h"
  1210                           CWG3CON1 equ 03F45h ;# 
  1211  0000                     # 36404 "C:\Program Files (x86)\Microchip\xc8\v2.00\pic\include\pic18f46k42.h"
  1212                           CWG3AS0 equ 03F46h ;# 
  1213  0000                     # 36524 "C:\Program Files (x86)\Microchip\xc8\v2.00\pic\include\pic18f46k42.h"
  1214                           CWG3AS1 equ 03F47h ;# 
  1215  0000                     # 36580 "C:\Program Files (x86)\Microchip\xc8\v2.00\pic\include\pic18f46k42.h"
  1216                           CWG3STR equ 03F48h ;# 
  1217  0000                     # 36692 "C:\Program Files (x86)\Microchip\xc8\v2.00\pic\include\pic18f46k42.h"
  1218                           CWG2CLK equ 03F49h ;# 
  1219  0000                     # 36697 "C:\Program Files (x86)\Microchip\xc8\v2.00\pic\include\pic18f46k42.h"
  1220                           CWG2CLKCON equ 03F49h ;# 
  1221  0000                     # 36746 "C:\Program Files (x86)\Microchip\xc8\v2.00\pic\include\pic18f46k42.h"
  1222                           CWG2ISM equ 03F4Ah ;# 
  1223  0000                     # 36792 "C:\Program Files (x86)\Microchip\xc8\v2.00\pic\include\pic18f46k42.h"
  1224                           CWG2DBR equ 03F4Bh ;# 
  1225  0000                     # 36896 "C:\Program Files (x86)\Microchip\xc8\v2.00\pic\include\pic18f46k42.h"
  1226                           CWG2DBF equ 03F4Ch ;# 
  1227  0000                     # 37000 "C:\Program Files (x86)\Microchip\xc8\v2.00\pic\include\pic18f46k42.h"
  1228                           CWG2CON0 equ 03F4Dh ;# 
  1229  0000                     # 37101 "C:\Program Files (x86)\Microchip\xc8\v2.00\pic\include\pic18f46k42.h"
  1230                           CWG2CON1 equ 03F4Eh ;# 
  1231  0000                     # 37179 "C:\Program Files (x86)\Microchip\xc8\v2.00\pic\include\pic18f46k42.h"
  1232                           CWG2AS0 equ 03F4Fh ;# 
  1233  0000                     # 37299 "C:\Program Files (x86)\Microchip\xc8\v2.00\pic\include\pic18f46k42.h"
  1234                           CWG2AS1 equ 03F50h ;# 
  1235  0000                     # 37355 "C:\Program Files (x86)\Microchip\xc8\v2.00\pic\include\pic18f46k42.h"
  1236                           CWG2STR equ 03F51h ;# 
  1237  0000                     # 37467 "C:\Program Files (x86)\Microchip\xc8\v2.00\pic\include\pic18f46k42.h"
  1238                           CWG1CLK equ 03F52h ;# 
  1239  0000                     # 37472 "C:\Program Files (x86)\Microchip\xc8\v2.00\pic\include\pic18f46k42.h"
  1240                           CWG1CLKCON equ 03F52h ;# 
  1241  0000                     # 37521 "C:\Program Files (x86)\Microchip\xc8\v2.00\pic\include\pic18f46k42.h"
  1242                           CWG1ISM equ 03F53h ;# 
  1243  0000                     # 37567 "C:\Program Files (x86)\Microchip\xc8\v2.00\pic\include\pic18f46k42.h"
  1244                           CWG1DBR equ 03F54h ;# 
  1245  0000                     # 37671 "C:\Program Files (x86)\Microchip\xc8\v2.00\pic\include\pic18f46k42.h"
  1246                           CWG1DBF equ 03F55h ;# 
  1247  0000                     # 37775 "C:\Program Files (x86)\Microchip\xc8\v2.00\pic\include\pic18f46k42.h"
  1248                           CWG1CON0 equ 03F56h ;# 
  1249  0000                     # 37876 "C:\Program Files (x86)\Microchip\xc8\v2.00\pic\include\pic18f46k42.h"
  1250                           CWG1CON1 equ 03F57h ;# 
  1251  0000                     # 37954 "C:\Program Files (x86)\Microchip\xc8\v2.00\pic\include\pic18f46k42.h"
  1252                           CWG1AS0 equ 03F58h ;# 
  1253  0000                     # 38074 "C:\Program Files (x86)\Microchip\xc8\v2.00\pic\include\pic18f46k42.h"
  1254                           CWG1AS1 equ 03F59h ;# 
  1255  0000                     # 38130 "C:\Program Files (x86)\Microchip\xc8\v2.00\pic\include\pic18f46k42.h"
  1256                           CWG1STR equ 03F5Ah ;# 
  1257  0000                     # 38242 "C:\Program Files (x86)\Microchip\xc8\v2.00\pic\include\pic18f46k42.h"
  1258                           CCPTMRS0 equ 03F5Eh ;# 
  1259  0000                     # 38330 "C:\Program Files (x86)\Microchip\xc8\v2.00\pic\include\pic18f46k42.h"
  1260                           CCPTMRS1 equ 03F5Fh ;# 
  1261  0000                     # 38418 "C:\Program Files (x86)\Microchip\xc8\v2.00\pic\include\pic18f46k42.h"
  1262                           PWM8DC equ 03F60h ;# 
  1263  0000                     # 38425 "C:\Program Files (x86)\Microchip\xc8\v2.00\pic\include\pic18f46k42.h"
  1264                           PWM8DCL equ 03F60h ;# 
  1265  0000                     # 38491 "C:\Program Files (x86)\Microchip\xc8\v2.00\pic\include\pic18f46k42.h"
  1266                           PWM8DCH equ 03F61h ;# 
  1267  0000                     # 38661 "C:\Program Files (x86)\Microchip\xc8\v2.00\pic\include\pic18f46k42.h"
  1268                           PWM8CON equ 03F62h ;# 
  1269  0000                     # 38717 "C:\Program Files (x86)\Microchip\xc8\v2.00\pic\include\pic18f46k42.h"
  1270                           PWM7DC equ 03F64h ;# 
  1271  0000                     # 38724 "C:\Program Files (x86)\Microchip\xc8\v2.00\pic\include\pic18f46k42.h"
  1272                           PWM7DCL equ 03F64h ;# 
  1273  0000                     # 38790 "C:\Program Files (x86)\Microchip\xc8\v2.00\pic\include\pic18f46k42.h"
  1274                           PWM7DCH equ 03F65h ;# 
  1275  0000                     # 38960 "C:\Program Files (x86)\Microchip\xc8\v2.00\pic\include\pic18f46k42.h"
  1276                           PWM7CON equ 03F66h ;# 
  1277  0000                     # 39016 "C:\Program Files (x86)\Microchip\xc8\v2.00\pic\include\pic18f46k42.h"
  1278                           PWM6DC equ 03F68h ;# 
  1279  0000                     # 39023 "C:\Program Files (x86)\Microchip\xc8\v2.00\pic\include\pic18f46k42.h"
  1280                           PWM6DCL equ 03F68h ;# 
  1281  0000                     # 39089 "C:\Program Files (x86)\Microchip\xc8\v2.00\pic\include\pic18f46k42.h"
  1282                           PWM6DCH equ 03F69h ;# 
  1283  0000                     # 39259 "C:\Program Files (x86)\Microchip\xc8\v2.00\pic\include\pic18f46k42.h"
  1284                           PWM6CON equ 03F6Ah ;# 
  1285  0000                     # 39315 "C:\Program Files (x86)\Microchip\xc8\v2.00\pic\include\pic18f46k42.h"
  1286                           PWM5DC equ 03F6Ch ;# 
  1287  0000                     # 39322 "C:\Program Files (x86)\Microchip\xc8\v2.00\pic\include\pic18f46k42.h"
  1288                           PWM5DCL equ 03F6Ch ;# 
  1289  0000                     # 39388 "C:\Program Files (x86)\Microchip\xc8\v2.00\pic\include\pic18f46k42.h"
  1290                           PWM5DCH equ 03F6Dh ;# 
  1291  0000                     # 39558 "C:\Program Files (x86)\Microchip\xc8\v2.00\pic\include\pic18f46k42.h"
  1292                           PWM5CON equ 03F6Eh ;# 
  1293  0000                     # 39614 "C:\Program Files (x86)\Microchip\xc8\v2.00\pic\include\pic18f46k42.h"
  1294                           CCPR4 equ 03F70h ;# 
  1295  0000                     # 39621 "C:\Program Files (x86)\Microchip\xc8\v2.00\pic\include\pic18f46k42.h"
  1296                           CCPR4L equ 03F70h ;# 
  1297  0000                     # 39641 "C:\Program Files (x86)\Microchip\xc8\v2.00\pic\include\pic18f46k42.h"
  1298                           CCPR4H equ 03F71h ;# 
  1299  0000                     # 39661 "C:\Program Files (x86)\Microchip\xc8\v2.00\pic\include\pic18f46k42.h"
  1300                           CCP4CON equ 03F72h ;# 
  1301  0000                     # 39788 "C:\Program Files (x86)\Microchip\xc8\v2.00\pic\include\pic18f46k42.h"
  1302                           CCP4CAP equ 03F73h ;# 
  1303  0000                     # 39856 "C:\Program Files (x86)\Microchip\xc8\v2.00\pic\include\pic18f46k42.h"
  1304                           CCPR3 equ 03F74h ;# 
  1305  0000                     # 39863 "C:\Program Files (x86)\Microchip\xc8\v2.00\pic\include\pic18f46k42.h"
  1306                           CCPR3L equ 03F74h ;# 
  1307  0000                     # 39883 "C:\Program Files (x86)\Microchip\xc8\v2.00\pic\include\pic18f46k42.h"
  1308                           CCPR3H equ 03F75h ;# 
  1309  0000                     # 39903 "C:\Program Files (x86)\Microchip\xc8\v2.00\pic\include\pic18f46k42.h"
  1310                           CCP3CON equ 03F76h ;# 
  1311  0000                     # 40030 "C:\Program Files (x86)\Microchip\xc8\v2.00\pic\include\pic18f46k42.h"
  1312                           CCP3CAP equ 03F77h ;# 
  1313  0000                     # 40098 "C:\Program Files (x86)\Microchip\xc8\v2.00\pic\include\pic18f46k42.h"
  1314                           CCPR2 equ 03F78h ;# 
  1315  0000                     # 40105 "C:\Program Files (x86)\Microchip\xc8\v2.00\pic\include\pic18f46k42.h"
  1316                           CCPR2L equ 03F78h ;# 
  1317  0000                     # 40125 "C:\Program Files (x86)\Microchip\xc8\v2.00\pic\include\pic18f46k42.h"
  1318                           CCPR2H equ 03F79h ;# 
  1319  0000                     # 40145 "C:\Program Files (x86)\Microchip\xc8\v2.00\pic\include\pic18f46k42.h"
  1320                           CCP2CON equ 03F7Ah ;# 
  1321  0000                     # 40272 "C:\Program Files (x86)\Microchip\xc8\v2.00\pic\include\pic18f46k42.h"
  1322                           CCP2CAP equ 03F7Bh ;# 
  1323  0000                     # 40340 "C:\Program Files (x86)\Microchip\xc8\v2.00\pic\include\pic18f46k42.h"
  1324                           CCPR1 equ 03F7Ch ;# 
  1325  0000                     # 40347 "C:\Program Files (x86)\Microchip\xc8\v2.00\pic\include\pic18f46k42.h"
  1326                           CCPR1L equ 03F7Ch ;# 
  1327  0000                     # 40367 "C:\Program Files (x86)\Microchip\xc8\v2.00\pic\include\pic18f46k42.h"
  1328                           CCPR1H equ 03F7Dh ;# 
  1329  0000                     # 40387 "C:\Program Files (x86)\Microchip\xc8\v2.00\pic\include\pic18f46k42.h"
  1330                           CCP1CON equ 03F7Eh ;# 
  1331  0000                     # 40514 "C:\Program Files (x86)\Microchip\xc8\v2.00\pic\include\pic18f46k42.h"
  1332                           CCP1CAP equ 03F7Fh ;# 
  1333  0000                     # 40582 "C:\Program Files (x86)\Microchip\xc8\v2.00\pic\include\pic18f46k42.h"
  1334                           T6TMR equ 03F92h ;# 
  1335  0000                     # 40587 "C:\Program Files (x86)\Microchip\xc8\v2.00\pic\include\pic18f46k42.h"
  1336                           TMR6 equ 03F92h ;# 
  1337  0000                     # 40620 "C:\Program Files (x86)\Microchip\xc8\v2.00\pic\include\pic18f46k42.h"
  1338                           T6PR equ 03F93h ;# 
  1339  0000                     # 40625 "C:\Program Files (x86)\Microchip\xc8\v2.00\pic\include\pic18f46k42.h"
  1340                           PR6 equ 03F93h ;# 
  1341  0000                     # 40658 "C:\Program Files (x86)\Microchip\xc8\v2.00\pic\include\pic18f46k42.h"
  1342                           T6CON equ 03F94h ;# 
  1343  0000                     # 40804 "C:\Program Files (x86)\Microchip\xc8\v2.00\pic\include\pic18f46k42.h"
  1344                           T6HLT equ 03F95h ;# 
  1345  0000                     # 40932 "C:\Program Files (x86)\Microchip\xc8\v2.00\pic\include\pic18f46k42.h"
  1346                           T6CLKCON equ 03F96h ;# 
  1347  0000                     # 40937 "C:\Program Files (x86)\Microchip\xc8\v2.00\pic\include\pic18f46k42.h"
  1348                           T6CLK equ 03F96h ;# 
  1349  0000                     # 41090 "C:\Program Files (x86)\Microchip\xc8\v2.00\pic\include\pic18f46k42.h"
  1350                           T6RST equ 03F97h ;# 
  1351  0000                     # 41182 "C:\Program Files (x86)\Microchip\xc8\v2.00\pic\include\pic18f46k42.h"
  1352                           TMR5L equ 03F98h ;# 
  1353  0000                     # 41252 "C:\Program Files (x86)\Microchip\xc8\v2.00\pic\include\pic18f46k42.h"
  1354                           TMR5H equ 03F99h ;# 
  1355  0000                     # 41322 "C:\Program Files (x86)\Microchip\xc8\v2.00\pic\include\pic18f46k42.h"
  1356                           T5CON equ 03F9Ah ;# 
  1357  0000                     # 41327 "C:\Program Files (x86)\Microchip\xc8\v2.00\pic\include\pic18f46k42.h"
  1358                           TMR5CON equ 03F9Ah ;# 
  1359  0000                     # 41512 "C:\Program Files (x86)\Microchip\xc8\v2.00\pic\include\pic18f46k42.h"
  1360                           T5GCON equ 03F9Bh ;# 
  1361  0000                     # 41517 "C:\Program Files (x86)\Microchip\xc8\v2.00\pic\include\pic18f46k42.h"
  1362                           TMR5GCON equ 03F9Bh ;# 
  1363  0000                     # 41726 "C:\Program Files (x86)\Microchip\xc8\v2.00\pic\include\pic18f46k42.h"
  1364                           T5GATE equ 03F9Ch ;# 
  1365  0000                     # 41731 "C:\Program Files (x86)\Microchip\xc8\v2.00\pic\include\pic18f46k42.h"
  1366                           TMR5GATE equ 03F9Ch ;# 
  1367  0000                     # 41892 "C:\Program Files (x86)\Microchip\xc8\v2.00\pic\include\pic18f46k42.h"
  1368                           T5CLK equ 03F9Dh ;# 
  1369  0000                     # 41897 "C:\Program Files (x86)\Microchip\xc8\v2.00\pic\include\pic18f46k42.h"
  1370                           TMR5CLK equ 03F9Dh ;# 
  1371  0000                     # 42058 "C:\Program Files (x86)\Microchip\xc8\v2.00\pic\include\pic18f46k42.h"
  1372                           T4TMR equ 03F9Eh ;# 
  1373  0000                     # 42063 "C:\Program Files (x86)\Microchip\xc8\v2.00\pic\include\pic18f46k42.h"
  1374                           TMR4 equ 03F9Eh ;# 
  1375  0000                     # 42096 "C:\Program Files (x86)\Microchip\xc8\v2.00\pic\include\pic18f46k42.h"
  1376                           T4PR equ 03F9Fh ;# 
  1377  0000                     # 42101 "C:\Program Files (x86)\Microchip\xc8\v2.00\pic\include\pic18f46k42.h"
  1378                           PR4 equ 03F9Fh ;# 
  1379  0000                     # 42134 "C:\Program Files (x86)\Microchip\xc8\v2.00\pic\include\pic18f46k42.h"
  1380                           T4CON equ 03FA0h ;# 
  1381  0000                     # 42280 "C:\Program Files (x86)\Microchip\xc8\v2.00\pic\include\pic18f46k42.h"
  1382                           T4HLT equ 03FA1h ;# 
  1383  0000                     # 42408 "C:\Program Files (x86)\Microchip\xc8\v2.00\pic\include\pic18f46k42.h"
  1384                           T4CLKCON equ 03FA2h ;# 
  1385  0000                     # 42413 "C:\Program Files (x86)\Microchip\xc8\v2.00\pic\include\pic18f46k42.h"
  1386                           T4CLK equ 03FA2h ;# 
  1387  0000                     # 42566 "C:\Program Files (x86)\Microchip\xc8\v2.00\pic\include\pic18f46k42.h"
  1388                           T4RST equ 03FA3h ;# 
  1389  0000                     # 42658 "C:\Program Files (x86)\Microchip\xc8\v2.00\pic\include\pic18f46k42.h"
  1390                           TMR3L equ 03FA4h ;# 
  1391  0000                     # 42728 "C:\Program Files (x86)\Microchip\xc8\v2.00\pic\include\pic18f46k42.h"
  1392                           TMR3H equ 03FA5h ;# 
  1393  0000                     # 42798 "C:\Program Files (x86)\Microchip\xc8\v2.00\pic\include\pic18f46k42.h"
  1394                           T3CON equ 03FA6h ;# 
  1395  0000                     # 42803 "C:\Program Files (x86)\Microchip\xc8\v2.00\pic\include\pic18f46k42.h"
  1396                           TMR3CON equ 03FA6h ;# 
  1397  0000                     # 42988 "C:\Program Files (x86)\Microchip\xc8\v2.00\pic\include\pic18f46k42.h"
  1398                           T3GCON equ 03FA7h ;# 
  1399  0000                     # 42993 "C:\Program Files (x86)\Microchip\xc8\v2.00\pic\include\pic18f46k42.h"
  1400                           TMR3GCON equ 03FA7h ;# 
  1401  0000                     # 43202 "C:\Program Files (x86)\Microchip\xc8\v2.00\pic\include\pic18f46k42.h"
  1402                           T3GATE equ 03FA8h ;# 
  1403  0000                     # 43207 "C:\Program Files (x86)\Microchip\xc8\v2.00\pic\include\pic18f46k42.h"
  1404                           TMR3GATE equ 03FA8h ;# 
  1405  0000                     # 43368 "C:\Program Files (x86)\Microchip\xc8\v2.00\pic\include\pic18f46k42.h"
  1406                           T3CLK equ 03FA9h ;# 
  1407  0000                     # 43373 "C:\Program Files (x86)\Microchip\xc8\v2.00\pic\include\pic18f46k42.h"
  1408                           TMR3CLK equ 03FA9h ;# 
  1409  0000                     # 43534 "C:\Program Files (x86)\Microchip\xc8\v2.00\pic\include\pic18f46k42.h"
  1410                           T2TMR equ 03FAAh ;# 
  1411  0000                     # 43539 "C:\Program Files (x86)\Microchip\xc8\v2.00\pic\include\pic18f46k42.h"
  1412                           TMR2 equ 03FAAh ;# 
  1413  0000                     # 43572 "C:\Program Files (x86)\Microchip\xc8\v2.00\pic\include\pic18f46k42.h"
  1414                           T2PR equ 03FABh ;# 
  1415  0000                     # 43577 "C:\Program Files (x86)\Microchip\xc8\v2.00\pic\include\pic18f46k42.h"
  1416                           PR2 equ 03FABh ;# 
  1417  0000                     # 43610 "C:\Program Files (x86)\Microchip\xc8\v2.00\pic\include\pic18f46k42.h"
  1418                           T2CON equ 03FACh ;# 
  1419  0000                     # 43756 "C:\Program Files (x86)\Microchip\xc8\v2.00\pic\include\pic18f46k42.h"
  1420                           T2HLT equ 03FADh ;# 
  1421  0000                     # 43884 "C:\Program Files (x86)\Microchip\xc8\v2.00\pic\include\pic18f46k42.h"
  1422                           T2CLKCON equ 03FAEh ;# 
  1423  0000                     # 43889 "C:\Program Files (x86)\Microchip\xc8\v2.00\pic\include\pic18f46k42.h"
  1424                           T2CLK equ 03FAEh ;# 
  1425  0000                     # 44042 "C:\Program Files (x86)\Microchip\xc8\v2.00\pic\include\pic18f46k42.h"
  1426                           T2RST equ 03FAFh ;# 
  1427  0000                     # 44134 "C:\Program Files (x86)\Microchip\xc8\v2.00\pic\include\pic18f46k42.h"
  1428                           TMR1L equ 03FB0h ;# 
  1429  0000                     # 44204 "C:\Program Files (x86)\Microchip\xc8\v2.00\pic\include\pic18f46k42.h"
  1430                           TMR1H equ 03FB1h ;# 
  1431  0000                     # 44274 "C:\Program Files (x86)\Microchip\xc8\v2.00\pic\include\pic18f46k42.h"
  1432                           T1CON equ 03FB2h ;# 
  1433  0000                     # 44279 "C:\Program Files (x86)\Microchip\xc8\v2.00\pic\include\pic18f46k42.h"
  1434                           TMR1CON equ 03FB2h ;# 
  1435  0000                     # 44464 "C:\Program Files (x86)\Microchip\xc8\v2.00\pic\include\pic18f46k42.h"
  1436                           T1GCON equ 03FB3h ;# 
  1437  0000                     # 44469 "C:\Program Files (x86)\Microchip\xc8\v2.00\pic\include\pic18f46k42.h"
  1438                           TMR1GCON equ 03FB3h ;# 
  1439  0000                     # 44678 "C:\Program Files (x86)\Microchip\xc8\v2.00\pic\include\pic18f46k42.h"
  1440                           T1GATE equ 03FB4h ;# 
  1441  0000                     # 44683 "C:\Program Files (x86)\Microchip\xc8\v2.00\pic\include\pic18f46k42.h"
  1442                           TMR1GATE equ 03FB4h ;# 
  1443  0000                     # 44844 "C:\Program Files (x86)\Microchip\xc8\v2.00\pic\include\pic18f46k42.h"
  1444                           T1CLK equ 03FB5h ;# 
  1445  0000                     # 44849 "C:\Program Files (x86)\Microchip\xc8\v2.00\pic\include\pic18f46k42.h"
  1446                           TMR1CLK equ 03FB5h ;# 
  1447  0000                     # 45010 "C:\Program Files (x86)\Microchip\xc8\v2.00\pic\include\pic18f46k42.h"
  1448                           TMR0L equ 03FB6h ;# 
  1449  0000                     # 45015 "C:\Program Files (x86)\Microchip\xc8\v2.00\pic\include\pic18f46k42.h"
  1450                           TMR0 equ 03FB6h ;# 
  1451  0000                     # 45148 "C:\Program Files (x86)\Microchip\xc8\v2.00\pic\include\pic18f46k42.h"
  1452                           TMR0H equ 03FB7h ;# 
  1453  0000                     # 45153 "C:\Program Files (x86)\Microchip\xc8\v2.00\pic\include\pic18f46k42.h"
  1454                           PR0 equ 03FB7h ;# 
  1455  0000                     # 45402 "C:\Program Files (x86)\Microchip\xc8\v2.00\pic\include\pic18f46k42.h"
  1456                           T0CON0 equ 03FB8h ;# 
  1457  0000                     # 45500 "C:\Program Files (x86)\Microchip\xc8\v2.00\pic\include\pic18f46k42.h"
  1458                           T0CON1 equ 03FB9h ;# 
  1459  0000                     # 45642 "C:\Program Files (x86)\Microchip\xc8\v2.00\pic\include\pic18f46k42.h"
  1460                           LATA equ 03FBAh ;# 
  1461  0000                     # 45754 "C:\Program Files (x86)\Microchip\xc8\v2.00\pic\include\pic18f46k42.h"
  1462                           LATB equ 03FBBh ;# 
  1463  0000                     # 45866 "C:\Program Files (x86)\Microchip\xc8\v2.00\pic\include\pic18f46k42.h"
  1464                           LATC equ 03FBCh ;# 
  1465  0000                     # 45978 "C:\Program Files (x86)\Microchip\xc8\v2.00\pic\include\pic18f46k42.h"
  1466                           LATD equ 03FBDh ;# 
  1467  0000                     # 46090 "C:\Program Files (x86)\Microchip\xc8\v2.00\pic\include\pic18f46k42.h"
  1468                           LATE equ 03FBEh ;# 
  1469  0000                     # 46142 "C:\Program Files (x86)\Microchip\xc8\v2.00\pic\include\pic18f46k42.h"
  1470                           TRISA equ 03FC2h ;# 
  1471  0000                     # 46204 "C:\Program Files (x86)\Microchip\xc8\v2.00\pic\include\pic18f46k42.h"
  1472                           TRISB equ 03FC3h ;# 
  1473  0000                     # 46266 "C:\Program Files (x86)\Microchip\xc8\v2.00\pic\include\pic18f46k42.h"
  1474                           TRISC equ 03FC4h ;# 
  1475  0000                     # 46328 "C:\Program Files (x86)\Microchip\xc8\v2.00\pic\include\pic18f46k42.h"
  1476                           TRISD equ 03FC5h ;# 
  1477  0000                     # 46390 "C:\Program Files (x86)\Microchip\xc8\v2.00\pic\include\pic18f46k42.h"
  1478                           TRISE equ 03FC6h ;# 
  1479  0000                     # 46422 "C:\Program Files (x86)\Microchip\xc8\v2.00\pic\include\pic18f46k42.h"
  1480                           PORTA equ 03FCAh ;# 
  1481  0000                     # 46506 "C:\Program Files (x86)\Microchip\xc8\v2.00\pic\include\pic18f46k42.h"
  1482                           PORTB equ 03FCBh ;# 
  1483  0000                     # 46577 "C:\Program Files (x86)\Microchip\xc8\v2.00\pic\include\pic18f46k42.h"
  1484                           PORTC equ 03FCCh ;# 
  1485  0000                     # 46663 "C:\Program Files (x86)\Microchip\xc8\v2.00\pic\include\pic18f46k42.h"
  1486                           PORTD equ 03FCDh ;# 
  1487  0000                     # 46734 "C:\Program Files (x86)\Microchip\xc8\v2.00\pic\include\pic18f46k42.h"
  1488                           PORTE equ 03FCEh ;# 
  1489  0000                     # 46851 "C:\Program Files (x86)\Microchip\xc8\v2.00\pic\include\pic18f46k42.h"
  1490                           INTCON0 equ 03FD2h ;# 
  1491  0000                     # 46911 "C:\Program Files (x86)\Microchip\xc8\v2.00\pic\include\pic18f46k42.h"
  1492                           INTCON1 equ 03FD3h ;# 
  1493  0000                     # 46947 "C:\Program Files (x86)\Microchip\xc8\v2.00\pic\include\pic18f46k42.h"
  1494                           IVTLOCK equ 03FD4h ;# 
  1495  0000                     # 46969 "C:\Program Files (x86)\Microchip\xc8\v2.00\pic\include\pic18f46k42.h"
  1496                           IVTBASE equ 03FD5h ;# 
  1497  0000                     # 46976 "C:\Program Files (x86)\Microchip\xc8\v2.00\pic\include\pic18f46k42.h"
  1498                           IVTBASEL equ 03FD5h ;# 
  1499  0000                     # 47038 "C:\Program Files (x86)\Microchip\xc8\v2.00\pic\include\pic18f46k42.h"
  1500                           IVTBASEH equ 03FD6h ;# 
  1501  0000                     # 47100 "C:\Program Files (x86)\Microchip\xc8\v2.00\pic\include\pic18f46k42.h"
  1502                           IVTBASEU equ 03FD7h ;# 
  1503  0000                     # 47144 "C:\Program Files (x86)\Microchip\xc8\v2.00\pic\include\pic18f46k42.h"
  1504                           STATUS equ 03FD8h ;# 
  1505  0000                     # 47260 "C:\Program Files (x86)\Microchip\xc8\v2.00\pic\include\pic18f46k42.h"
  1506                           FSR2 equ 03FD9h ;# 
  1507  0000                     # 47267 "C:\Program Files (x86)\Microchip\xc8\v2.00\pic\include\pic18f46k42.h"
  1508                           FSR2L equ 03FD9h ;# 
  1509  0000                     # 47287 "C:\Program Files (x86)\Microchip\xc8\v2.00\pic\include\pic18f46k42.h"
  1510                           FSR2H equ 03FDAh ;# 
  1511  0000                     # 47307 "C:\Program Files (x86)\Microchip\xc8\v2.00\pic\include\pic18f46k42.h"
  1512                           PLUSW2 equ 03FDBh ;# 
  1513  0000                     # 47327 "C:\Program Files (x86)\Microchip\xc8\v2.00\pic\include\pic18f46k42.h"
  1514                           PREINC2 equ 03FDCh ;# 
  1515  0000                     # 47347 "C:\Program Files (x86)\Microchip\xc8\v2.00\pic\include\pic18f46k42.h"
  1516                           POSTDEC2 equ 03FDDh ;# 
  1517  0000                     # 47367 "C:\Program Files (x86)\Microchip\xc8\v2.00\pic\include\pic18f46k42.h"
  1518                           POSTINC2 equ 03FDEh ;# 
  1519  0000                     # 47387 "C:\Program Files (x86)\Microchip\xc8\v2.00\pic\include\pic18f46k42.h"
  1520                           INDF2 equ 03FDFh ;# 
  1521  0000                     # 47407 "C:\Program Files (x86)\Microchip\xc8\v2.00\pic\include\pic18f46k42.h"
  1522                           BSR equ 03FE0h ;# 
  1523  0000                     # 47427 "C:\Program Files (x86)\Microchip\xc8\v2.00\pic\include\pic18f46k42.h"
  1524                           FSR1 equ 03FE1h ;# 
  1525  0000                     # 47434 "C:\Program Files (x86)\Microchip\xc8\v2.00\pic\include\pic18f46k42.h"
  1526                           FSR1L equ 03FE1h ;# 
  1527  0000                     # 47454 "C:\Program Files (x86)\Microchip\xc8\v2.00\pic\include\pic18f46k42.h"
  1528                           FSR1H equ 03FE2h ;# 
  1529  0000                     # 47474 "C:\Program Files (x86)\Microchip\xc8\v2.00\pic\include\pic18f46k42.h"
  1530                           PLUSW1 equ 03FE3h ;# 
  1531  0000                     # 47494 "C:\Program Files (x86)\Microchip\xc8\v2.00\pic\include\pic18f46k42.h"
  1532                           PREINC1 equ 03FE4h ;# 
  1533  0000                     # 47514 "C:\Program Files (x86)\Microchip\xc8\v2.00\pic\include\pic18f46k42.h"
  1534                           POSTDEC1 equ 03FE5h ;# 
  1535  0000                     # 47534 "C:\Program Files (x86)\Microchip\xc8\v2.00\pic\include\pic18f46k42.h"
  1536                           POSTINC1 equ 03FE6h ;# 
  1537  0000                     # 47554 "C:\Program Files (x86)\Microchip\xc8\v2.00\pic\include\pic18f46k42.h"
  1538                           INDF1 equ 03FE7h ;# 
  1539  0000                     # 47574 "C:\Program Files (x86)\Microchip\xc8\v2.00\pic\include\pic18f46k42.h"
  1540                           WREG equ 03FE8h ;# 
  1541  0000                     # 47612 "C:\Program Files (x86)\Microchip\xc8\v2.00\pic\include\pic18f46k42.h"
  1542                           FSR0 equ 03FE9h ;# 
  1543  0000                     # 47619 "C:\Program Files (x86)\Microchip\xc8\v2.00\pic\include\pic18f46k42.h"
  1544                           FSR0L equ 03FE9h ;# 
  1545  0000                     # 47639 "C:\Program Files (x86)\Microchip\xc8\v2.00\pic\include\pic18f46k42.h"
  1546                           FSR0H equ 03FEAh ;# 
  1547  0000                     # 47659 "C:\Program Files (x86)\Microchip\xc8\v2.00\pic\include\pic18f46k42.h"
  1548                           PLUSW0 equ 03FEBh ;# 
  1549  0000                     # 47679 "C:\Program Files (x86)\Microchip\xc8\v2.00\pic\include\pic18f46k42.h"
  1550                           PREINC0 equ 03FECh ;# 
  1551  0000                     # 47699 "C:\Program Files (x86)\Microchip\xc8\v2.00\pic\include\pic18f46k42.h"
  1552                           POSTDEC0 equ 03FEDh ;# 
  1553  0000                     # 47719 "C:\Program Files (x86)\Microchip\xc8\v2.00\pic\include\pic18f46k42.h"
  1554                           POSTINC0 equ 03FEEh ;# 
  1555  0000                     # 47739 "C:\Program Files (x86)\Microchip\xc8\v2.00\pic\include\pic18f46k42.h"
  1556                           INDF0 equ 03FEFh ;# 
  1557  0000                     # 47759 "C:\Program Files (x86)\Microchip\xc8\v2.00\pic\include\pic18f46k42.h"
  1558                           PCON0 equ 03FF0h ;# 
  1559  0000                     # 47912 "C:\Program Files (x86)\Microchip\xc8\v2.00\pic\include\pic18f46k42.h"
  1560                           PCON1 equ 03FF1h ;# 
  1561  0000                     # 47951 "C:\Program Files (x86)\Microchip\xc8\v2.00\pic\include\pic18f46k42.h"
  1562                           PROD equ 03FF3h ;# 
  1563  0000                     # 47958 "C:\Program Files (x86)\Microchip\xc8\v2.00\pic\include\pic18f46k42.h"
  1564                           PRODL equ 03FF3h ;# 
  1565  0000                     # 47978 "C:\Program Files (x86)\Microchip\xc8\v2.00\pic\include\pic18f46k42.h"
  1566                           PRODH equ 03FF4h ;# 
  1567  0000                     # 47998 "C:\Program Files (x86)\Microchip\xc8\v2.00\pic\include\pic18f46k42.h"
  1568                           TABLAT equ 03FF5h ;# 
  1569  0000                     # 48020 "C:\Program Files (x86)\Microchip\xc8\v2.00\pic\include\pic18f46k42.h"
  1570                           TBLPTR equ 03FF6h ;# 
  1571  0000                     # 48027 "C:\Program Files (x86)\Microchip\xc8\v2.00\pic\include\pic18f46k42.h"
  1572                           TBLPTRL equ 03FF6h ;# 
  1573  0000                     # 48047 "C:\Program Files (x86)\Microchip\xc8\v2.00\pic\include\pic18f46k42.h"
  1574                           TBLPTRH equ 03FF7h ;# 
  1575  0000                     # 48067 "C:\Program Files (x86)\Microchip\xc8\v2.00\pic\include\pic18f46k42.h"
  1576                           TBLPTRU equ 03FF8h ;# 
  1577  0000                     # 48098 "C:\Program Files (x86)\Microchip\xc8\v2.00\pic\include\pic18f46k42.h"
  1578                           PCLAT equ 03FF9h ;# 
  1579  0000                     # 48105 "C:\Program Files (x86)\Microchip\xc8\v2.00\pic\include\pic18f46k42.h"
  1580                           PCL equ 03FF9h ;# 
  1581  0000                     # 48125 "C:\Program Files (x86)\Microchip\xc8\v2.00\pic\include\pic18f46k42.h"
  1582                           PCLATH equ 03FFAh ;# 
  1583  0000                     # 48145 "C:\Program Files (x86)\Microchip\xc8\v2.00\pic\include\pic18f46k42.h"
  1584                           PCLATU equ 03FFBh ;# 
  1585  0000                     # 48165 "C:\Program Files (x86)\Microchip\xc8\v2.00\pic\include\pic18f46k42.h"
  1586                           STKPTR equ 03FFCh ;# 
  1587  0000                     # 48251 "C:\Program Files (x86)\Microchip\xc8\v2.00\pic\include\pic18f46k42.h"
  1588                           TOS equ 03FFDh ;# 
  1589  0000                     # 48258 "C:\Program Files (x86)\Microchip\xc8\v2.00\pic\include\pic18f46k42.h"
  1590                           TOSL equ 03FFDh ;# 
  1591  0000                     # 48278 "C:\Program Files (x86)\Microchip\xc8\v2.00\pic\include\pic18f46k42.h"
  1592                           TOSH equ 03FFEh ;# 
  1593  0000                     # 48298 "C:\Program Files (x86)\Microchip\xc8\v2.00\pic\include\pic18f46k42.h"
  1594                           TOSU equ 03FFFh ;# 
  1595  0000                     	FNCALL	_main,___awdiv
  1596                           	FNCALL	_main,_rand
  1597                           	FNCALL	_main,_srand
  1598                           	FNCALL	_rand,___omul
  1599                           	FNROOT	_main
  1600                           	global	_seed
  1601                           psect	nvCOMRAM,class=COMRAM,space=1,noexec
  1602                           global __pnvCOMRAM
  1603                           __pnvCOMRAM:
  1604  000027                     _seed:
  1605  000027                            ds      8
  1606  000027                     	global	_ANSELB
  1607                           _ANSELB	set	0x3A50
  1608  0000                     	global	_PORTB
  1609                           _PORTB	set	0x3FCB
  1610  0000                     	global	_TRISB
  1611                           _TRISB	set	0x3FC3
  1612  0000                     ; #config settings
  1613                           global __CFG_FEXTOSC$HS
  1614                           __CFG_FEXTOSC$HS equ 0x0
  1615  0000                     global __CFG_RSTOSC$EXTOSC
  1616                           __CFG_RSTOSC$EXTOSC equ 0x0
  1617  0000                     global __CFG_CLKOUTEN$OFF
  1618                           __CFG_CLKOUTEN$OFF equ 0x0
  1619  0000                     global __CFG_PR1WAY$ON
  1620                           __CFG_PR1WAY$ON equ 0x0
  1621  0000                     global __CFG_CSWEN$ON
  1622                           __CFG_CSWEN$ON equ 0x0
  1623  0000                     global __CFG_FCMEN$OFF
  1624                           __CFG_FCMEN$OFF equ 0x0
  1625  0000                     global __CFG_MCLRE$EXTMCLR
  1626                           __CFG_MCLRE$EXTMCLR equ 0x0
  1627  0000                     global __CFG_PWRTS$PWRT_OFF
  1628                           __CFG_PWRTS$PWRT_OFF equ 0x0
  1629  0000                     global __CFG_MVECEN$OFF
  1630                           __CFG_MVECEN$OFF equ 0x0
  1631  0000                     global __CFG_IVT1WAY$ON
  1632                           __CFG_IVT1WAY$ON equ 0x0
  1633  0000                     global __CFG_LPBOREN$OFF
  1634                           __CFG_LPBOREN$OFF equ 0x0
  1635  0000                     global __CFG_BOREN$SBORDIS
  1636                           __CFG_BOREN$SBORDIS equ 0x0
  1637  0000                     global __CFG_BORV$VBOR_2P45
  1638                           __CFG_BORV$VBOR_2P45 equ 0x0
  1639  0000                     global __CFG_ZCD$OFF
  1640                           __CFG_ZCD$OFF equ 0x0
  1641  0000                     global __CFG_PPS1WAY$ON
  1642                           __CFG_PPS1WAY$ON equ 0x0
  1643  0000                     global __CFG_STVREN$ON
  1644                           __CFG_STVREN$ON equ 0x0
  1645  0000                     global __CFG_DEBUG$OFF
  1646                           __CFG_DEBUG$OFF equ 0x0
  1647  0000                     global __CFG_XINST$OFF
  1648                           __CFG_XINST$OFF equ 0x0
  1649  0000                     global __CFG_WDTCPS$WDTCPS_31
  1650                           __CFG_WDTCPS$WDTCPS_31 equ 0x0
  1651  0000                     global __CFG_WDTE$OFF
  1652                           __CFG_WDTE$OFF equ 0x0
  1653  0000                     global __CFG_WDTCWS$WDTCWS_7
  1654                           __CFG_WDTCWS$WDTCWS_7 equ 0x0
  1655  0000                     global __CFG_WDTCCS$SC
  1656                           __CFG_WDTCCS$SC equ 0x0
  1657  0000                     global __CFG_BBSIZE$BBSIZE_512
  1658                           __CFG_BBSIZE$BBSIZE_512 equ 0x0
  1659  0000                     global __CFG_BBEN$OFF
  1660                           __CFG_BBEN$OFF equ 0x0
  1661  0000                     global __CFG_SAFEN$OFF
  1662                           __CFG_SAFEN$OFF equ 0x0
  1663  0000                     global __CFG_WRTAPP$OFF
  1664                           __CFG_WRTAPP$OFF equ 0x0
  1665  0000                     global __CFG_WRTB$OFF
  1666                           __CFG_WRTB$OFF equ 0x0
  1667  0000                     global __CFG_WRTC$OFF
  1668                           __CFG_WRTC$OFF equ 0x0
  1669  0000                     global __CFG_WRTD$OFF
  1670                           __CFG_WRTD$OFF equ 0x0
  1671  0000                     global __CFG_WRTSAF$OFF
  1672                           __CFG_WRTSAF$OFF equ 0x0
  1673  0000                     global __CFG_LVP$ON
  1674                           __CFG_LVP$ON equ 0x0
  1675  0000                     global __CFG_CP$OFF
  1676                           __CFG_CP$OFF equ 0x0
  1677  0000                     	file	"C:\Users\Teddy\AppData\Local\Temp\sg38."
  1678                           	line	#
  1679                           psect	cinit,class=CODE,delta=1,reloc=2
  1680                           global __pcinit
  1681                           __pcinit:
  1682  00FC8E                     global start_initialization
  1683                           start_initialization:
  1684  00FC8E                     
  1685                           global __initialization
  1686                           __initialization:
  1687  00FC8E                     psect cinit,class=CODE,delta=1
  1688                           global end_of_initialization,__end_of__initialization
  1689                           
  1690                           ;End of C runtime variable initialization code
  1691                           
  1692                           end_of_initialization:
  1693  00FC8E                     __end_of__initialization:
  1694  00FC8E                     movlb 0
  1695  00FC8E  0100               goto _main	;jump to C main() function
  1696  00FC90  EF65  F07E         psect	cstackCOMRAM,class=COMRAM,space=1,noexec
  1697                           global __pcstackCOMRAM
  1698                           __pcstackCOMRAM:
  1699  000001                     ?_srand:	; 1 bytes @ 0x0
  1700  000001                     ?_main:	; 1 bytes @ 0x0
  1701  000001                     	global	?___awdiv
  1702                           ?___awdiv:	; 2 bytes @ 0x0
  1703  000001                     	global	?___omul
  1704                           ?___omul:	; 8 bytes @ 0x0
  1705  000001                     	global	___awdiv@dividend
  1706                           ___awdiv@dividend:	; 2 bytes @ 0x0
  1707  000001                     	global	srand@s
  1708                           srand@s:	; 2 bytes @ 0x0
  1709  000001                     	global	___omul@multiplier
  1710                           ___omul@multiplier:	; 8 bytes @ 0x0
  1711  000001                     	ds   2
  1712  000001                     ??_srand:	; 1 bytes @ 0x2
  1713  000003                     	global	___awdiv@divisor
  1714                           ___awdiv@divisor:	; 2 bytes @ 0x2
  1715  000003                     	ds   2
  1716  000003                     ??___awdiv:	; 1 bytes @ 0x4
  1717  000005                     	global	___awdiv@counter
  1718                           ___awdiv@counter:	; 1 bytes @ 0x4
  1719  000005                     	ds   1
  1720  000005                     	global	___awdiv@sign
  1721                           ___awdiv@sign:	; 1 bytes @ 0x5
  1722  000006                     	ds   1
  1723  000006                     	global	___awdiv@quotient
  1724                           ___awdiv@quotient:	; 2 bytes @ 0x6
  1725  000007                     	ds   2
  1726  000007                     	global	___omul@multiplicand
  1727                           ___omul@multiplicand:	; 8 bytes @ 0x8
  1728  000009                     	ds   8
  1729  000009                     ??___omul:	; 1 bytes @ 0x10
  1730  000011                     	global	___omul@product
  1731                           ___omul@product:	; 8 bytes @ 0x10
  1732  000011                     	ds   8
  1733  000011                     	global	?_rand
  1734                           ?_rand:	; 2 bytes @ 0x18
  1735  000019                     	ds   2
  1736  000019                     ??_rand:	; 1 bytes @ 0x1A
  1737  00001B                     	ds   8
  1738  00001B                     ??_main:	; 1 bytes @ 0x22
  1739  000023                     	ds   2
  1740  000023                     	global	main@rand_num
  1741                           main@rand_num:	; 2 bytes @ 0x24
  1742  000025                     	ds   2
  1743  000025                     ;!
  1744                           ;!Data Sizes:
  1745                           ;!    Strings     0
  1746                           ;!    Constant    0
  1747                           ;!    Data        0
  1748                           ;!    BSS         0
  1749                           ;!    Persistent  8
  1750                           ;!    Stack       0
  1751                           ;!
  1752                           ;!Auto Spaces:
  1753                           ;!    Space          Size  Autos    Used
  1754                           ;!    COMRAM           95     38      46
  1755                           ;!    BANK0           160      0       0
  1756                           ;!    BANK1           256      0       0
  1757                           ;!    BANK2           256      0       0
  1758                           ;!    BANK3           256      0       0
  1759                           ;!    BANK4           256      0       0
  1760                           ;!    BANK5           256      0       0
  1761                           ;!    BANK6           256      0       0
  1762                           ;!    BANK7           256      0       0
  1763                           ;!    BANK8           256      0       0
  1764                           ;!    BANK9           256      0       0
  1765                           ;!    BANK10          256      0       0
  1766                           ;!    BANK11          256      0       0
  1767                           ;!    BANK12          256      0       0
  1768                           ;!    BANK13          256      0       0
  1769                           ;!    BANK14          256      0       0
  1770                           ;!    BANK15          256      0       0
  1771                           
  1772                           ;!
  1773                           ;!Pointer List with Targets:
  1774                           ;!
  1775                           ;!    None.
  1776                           
  1777                           
  1778                           ;!
  1779                           ;!Critical Paths under _main in COMRAM
  1780                           ;!
  1781                           ;!    _main->_rand
  1782                           ;!    _rand->___omul
  1783                           ;!
  1784                           ;!Critical Paths under _main in BANK0
  1785                           ;!
  1786                           ;!    None.
  1787                           ;!
  1788                           ;!Critical Paths under _main in BANK1
  1789                           ;!
  1790                           ;!    None.
  1791                           ;!
  1792                           ;!Critical Paths under _main in BANK2
  1793                           ;!
  1794                           ;!    None.
  1795                           ;!
  1796                           ;!Critical Paths under _main in BANK3
  1797                           ;!
  1798                           ;!    None.
  1799                           ;!
  1800                           ;!Critical Paths under _main in BANK4
  1801                           ;!
  1802                           ;!    None.
  1803                           ;!
  1804                           ;!Critical Paths under _main in BANK5
  1805                           ;!
  1806                           ;!    None.
  1807                           ;!
  1808                           ;!Critical Paths under _main in BANK6
  1809                           ;!
  1810                           ;!    None.
  1811                           ;!
  1812                           ;!Critical Paths under _main in BANK7
  1813                           ;!
  1814                           ;!    None.
  1815                           ;!
  1816                           ;!Critical Paths under _main in BANK8
  1817                           ;!
  1818                           ;!    None.
  1819                           ;!
  1820                           ;!Critical Paths under _main in BANK9
  1821                           ;!
  1822                           ;!    None.
  1823                           ;!
  1824                           ;!Critical Paths under _main in BANK10
  1825                           ;!
  1826                           ;!    None.
  1827                           ;!
  1828                           ;!Critical Paths under _main in BANK11
  1829                           ;!
  1830                           ;!    None.
  1831                           ;!
  1832                           ;!Critical Paths under _main in BANK12
  1833                           ;!
  1834                           ;!    None.
  1835                           ;!
  1836                           ;!Critical Paths under _main in BANK13
  1837                           ;!
  1838                           ;!    None.
  1839                           ;!
  1840                           ;!Critical Paths under _main in BANK14
  1841                           ;!
  1842                           ;!    None.
  1843                           ;!
  1844                           ;!Critical Paths under _main in BANK15
  1845                           ;!
  1846                           ;!    None.
  1847                           
  1848 ;;
  1849 ;;Main: autosize = 0, tempsize = 2, incstack = 0, save=0
  1850 ;;
  1851                           
  1852                           ;!
  1853                           ;!Call Graph Tables:
  1854                           ;!
  1855                           ;! ---------------------------------------------------------------------------------
  1856                           ;! (Depth) Function   	        Calls       Base Space   Used Autos Params    Refs
  1857                           ;! ---------------------------------------------------------------------------------
  1858                           ;! (0) _main                                                 4     4      0     966
  1859                           ;!                                             34 COMRAM     4     4      0
  1860                           ;!                            ___awdiv
  1861                           ;!                               _rand
  1862                           ;!                              _srand
  1863                           ;! ---------------------------------------------------------------------------------
  1864                           ;! (1) _srand                                                6     4      2      98
  1865                           ;!                                              0 COMRAM     6     4      2
  1866                           ;! ---------------------------------------------------------------------------------
  1867                           ;! (1) _rand                                                10     8      2     370
  1868                           ;!                                             24 COMRAM    10     8      2
  1869                           ;!                             ___omul
  1870                           ;! ---------------------------------------------------------------------------------
  1871                           ;! (2) ___omul                                              24     8     16     370
  1872                           ;!                                              0 COMRAM    24     8     16
  1873                           ;! ---------------------------------------------------------------------------------
  1874                           ;! (1) ___awdiv                                              8     4      4     452
  1875                           ;!                                              0 COMRAM     8     4      4
  1876                           ;! ---------------------------------------------------------------------------------
  1877                           ;! Estimated maximum stack depth 2
  1878                           ;! ---------------------------------------------------------------------------------
  1879                           ;!
  1880                           ;! Call Graph Graphs:
  1881                           ;!
  1882                           ;! _main (ROOT)
  1883                           ;!   ___awdiv
  1884                           ;!   _rand
  1885                           ;!     ___omul
  1886                           ;!   _srand
  1887                           ;!
  1888                           
  1889                           ;! Address spaces:
  1890                           
  1891                           ;!Name               Size   Autos  Total    Cost      Usage
  1892                           ;!BITCOMRAM           5F      0       0       0        0.0%
  1893                           ;!EEDATA             400      0       0       0        0.0%
  1894                           ;!NULL                 0      0       0       0        0.0%
  1895                           ;!CODE                 0      0       0       0        0.0%
  1896                           ;!COMRAM              5F     26      2E       1       48.4%
  1897                           ;!STACK                0      0       0       2        0.0%
  1898                           ;!DATA                 0      0      2E       3        0.0%
  1899                           ;!BITBANK0            A0      0       0       4        0.0%
  1900                           ;!BANK0               A0      0       0       5        0.0%
  1901                           ;!BITBANK1           100      0       0       6        0.0%
  1902                           ;!BANK1              100      0       0       7        0.0%
  1903                           ;!BITBANK2           100      0       0       8        0.0%
  1904                           ;!BANK2              100      0       0       9        0.0%
  1905                           ;!BITBANK3           100      0       0      10        0.0%
  1906                           ;!BANK3              100      0       0      11        0.0%
  1907                           ;!BITBANK4           100      0       0      12        0.0%
  1908                           ;!BANK4              100      0       0      13        0.0%
  1909                           ;!BITBANK5           100      0       0      14        0.0%
  1910                           ;!BANK5              100      0       0      15        0.0%
  1911                           ;!BITBANK6           100      0       0      16        0.0%
  1912                           ;!BANK6              100      0       0      17        0.0%
  1913                           ;!BITBANK7           100      0       0      18        0.0%
  1914                           ;!BANK7              100      0       0      19        0.0%
  1915                           ;!BITBANK8           100      0       0      20        0.0%
  1916                           ;!BANK8              100      0       0      21        0.0%
  1917                           ;!BITBANK9           100      0       0      22        0.0%
  1918                           ;!BANK9              100      0       0      23        0.0%
  1919                           ;!BANK10             100      0       0      24        0.0%
  1920                           ;!BANK11             100      0       0      25        0.0%
  1921                           ;!BANK12             100      0       0      26        0.0%
  1922                           ;!BANK13             100      0       0      27        0.0%
  1923                           ;!BITBANK14          100      0       0      28        0.0%
  1924                           ;!BANK14             100      0       0      29        0.0%
  1925                           ;!BITBANK15          100      0       0      30        0.0%
  1926                           ;!BANK15             100      0       0      31        0.0%
  1927                           ;!ABS                  0      0      2E      32        0.0%
  1928                           ;!BITBANK10          100      0       0      33        0.0%
  1929                           ;!BITBANK11          100      0       0      34        0.0%
  1930                           ;!BITBANK12          100      0       0      35        0.0%
  1931                           ;!BITBANK13          100      0       0      36        0.0%
  1932                           ;!BIGRAM             FFF      0       0      37        0.0%
  1933                           ;!BITSFR_8             0      0       0     200        0.0%
  1934                           ;!SFR_8                0      0       0     200        0.0%
  1935                           ;!BITSFR_7             0      0       0     200        0.0%
  1936                           ;!SFR_7                0      0       0     200        0.0%
  1937                           ;!BITSFR_6             0      0       0     200        0.0%
  1938                           ;!SFR_6                0      0       0     200        0.0%
  1939                           ;!BITSFR_5             0      0       0     200        0.0%
  1940                           ;!SFR_5                0      0       0     200        0.0%
  1941                           ;!BITSFR_4             0      0       0     200        0.0%
  1942                           ;!SFR_4                0      0       0     200        0.0%
  1943                           ;!BITSFR_3             0      0       0     200        0.0%
  1944                           ;!SFR_3                0      0       0     200        0.0%
  1945                           ;!BITSFR_2             0      0       0     200        0.0%
  1946                           ;!SFR_2                0      0       0     200        0.0%
  1947                           ;!BITSFR_1             0      0       0     200        0.0%
  1948                           ;!SFR_1                0      0       0     200        0.0%
  1949                           ;!BITSFR               0      0       0     200        0.0%
  1950                           ;!SFR                  0      0       0     200        0.0%
  1951                           
  1952                           	global	_main
  1953                           
  1954 ;; *************** function _main *****************
  1955 ;; Defined at:
  1956 ;;		line 21 in file "Guess_Which_LEDs.c"
  1957 ;; Parameters:    Size  Location     Type
  1958 ;;		None
  1959 ;; Auto vars:     Size  Location     Type
  1960 ;;  rand_num        2   36[COMRAM] int 
  1961 ;; Return value:  Size  Location     Type
  1962 ;;                  1    wreg      void 
  1963 ;; Registers used:
  1964 ;;		wreg, fsr2l, fsr2h, status,2, status,0, cstack
  1965 ;; Tracked objects:
  1966 ;;		On entry : 0/0
  1967 ;;		On exit  : 0/0
  1968 ;;		Unchanged: 0/0
  1969 ;; Data sizes:     COMRAM   BANK0   BANK1   BANK2   BANK3   BANK4   BANK5   BANK6   BANK7   BANK8   BANK9  BANK10  BANK1
       1  BANK12  BANK13  BANK14  BANK15
  1970 ;;      Params:         0       0       0       0       0       0       0       0       0       0       0       0       
       0       0       0       0       0
  1971 ;;      Locals:         2       0       0       0       0       0       0       0       0       0       0       0       
       0       0       0       0       0
  1972 ;;      Temps:          2       0       0       0       0       0       0       0       0       0       0       0       
       0       0       0       0       0
  1973 ;;      Totals:         4       0       0       0       0       0       0       0       0       0       0       0       
       0       0       0       0       0
  1974 ;;Total ram usage:        4 bytes
  1975 ;; Hardware stack levels required when called:    2
  1976 ;; This function calls:
  1977 ;;		___awdiv
  1978 ;;		_rand
  1979 ;;		_srand
  1980 ;; This function is called by:
  1981 ;;		Startup code after reset
  1982 ;; This function uses a non-reentrant model
  1983 ;;
  1984                           psect	text0,class=CODE,space=0,reloc=2,group=0
  1985                           	file	"Guess_Which_LEDs.c"
  1986                           	line	21
  1987                           global __ptext0
  1988                           __ptext0:
  1989  00FCCA                     psect	text0
  1990                           	file	"Guess_Which_LEDs.c"
  1991                           	line	21
  1992                           	global	__size_of_main
  1993                           	__size_of_main	equ	__end_of_main-_main
  1994  0000                     	
  1995                           _main:
  1996  00FCCA                     ;incstack = 0
  1997                           	opt	stack 29
  1998                           	line	24
  1999                           	
  2000                           l840:
  2001  00FCCA                     ;Guess_Which_LEDs.c: 22:     int rand_num;;Guess_Which_LEDs.c: 24:     ANSELB = 0xF0;
  2002                           	movlw	low(0F0h)
  2003  00FCCA  0EF0               	movlb	58	; () banked
  2004  00FCCC  013A               	movwf	((14928))&0ffh	;volatile
  2005  00FCCE  6F50               	line	25
  2006                           ;Guess_Which_LEDs.c: 25:     TRISB = 0xF0;
  2007                           	movlw	low(0F0h)
  2008  00FCD0  0EF0               	movlb	63	; () banked
  2009  00FCD2  013F               	movwf	((16323))&0ffh	;volatile
  2010  00FCD4  6FC3               	line	27
  2011                           	
  2012                           l842:; BSR set to: 63
  2013  00FCD6                     
  2014                           ;Guess_Which_LEDs.c: 27:     srand(10);
  2015                           	movlw	high(0Ah)
  2016  00FCD6  0E00               	movwf	((c:srand@s+1)),c
  2017  00FCD8  6E02               	movlw	low(0Ah)
  2018  00FCDA  0E0A               	movwf	((c:srand@s)),c
  2019  00FCDC  6E01               	call	_srand	;wreg free
  2020  00FCDE  EC4A  F07E         	goto	l844
  2021  00FCE2  EF73  F07E         	line	29
  2022                           ;Guess_Which_LEDs.c: 29:       while(1)
  2023                           	
  2024                           l17:
  2025  00FCE6                     	line	32
  2026                           	
  2027                           l844:
  2028  00FCE6                     ;Guess_Which_LEDs.c: 30:     {;Guess_Which_LEDs.c: 32:         rand_num = rand();
  2029                           	call	_rand	;wreg free
  2030  00FCE6  EC74  F07F         	movff	0+?_rand,(c:main@rand_num)
  2031  00FCEA  0060  F064  F025   	movff	1+?_rand,(c:main@rand_num+1)
  2032  00FCF0  0060  F068  F026   	line	33
  2033                           	
  2034                           l846:
  2035  00FCF6                     ;Guess_Which_LEDs.c: 33:         rand_num = rand_num/2048;
  2036                           	movff	(c:main@rand_num),(c:___awdiv@dividend)
  2037  00FCF6  0060  F094  F001   	movff	(c:main@rand_num+1),(c:___awdiv@dividend+1)
  2038  00FCFC  0060  F098  F002   	movlw	high(0800h)
  2039  00FD02  0E08               	movwf	((c:___awdiv@divisor+1)),c
  2040  00FD04  6E04               	movlw	low(0800h)
  2041  00FD06  0E00               	movwf	((c:___awdiv@divisor)),c
  2042  00FD08  6E03               	call	___awdiv	;wreg free
  2043  00FD0A  ECFC  F07E         	movff	0+?___awdiv,(c:main@rand_num)
  2044  00FD0E  0060  F004  F025   	movff	1+?___awdiv,(c:main@rand_num+1)
  2045  00FD14  0060  F008  F026   	line	34
  2046                           	
  2047                           l848:
  2048  00FD1A                     ;Guess_Which_LEDs.c: 34:         PORTB = rand_num;
  2049                           	movff	(c:main@rand_num),(16331)	;volatile
  2050  00FD1A  0060  F097  FFCB   	line	35
  2051                           	
  2052                           l850:
  2053  00FD20                     ;Guess_Which_LEDs.c: 35:         _delay((unsigned long)((6000)*(8000000/4000.0)));
  2054                           	opt asmopt_push
  2055                           opt asmopt_off
  2056                           movlw  61
  2057  00FD20  0E3D               movwf	(??_main+0+0+1)&0ffh,c,f
  2058  00FD22  6E24               movlw	225
  2059  00FD24  0EE1               movwf	(??_main+0+0)&0ffh,c,f
  2060  00FD26  6E23               	movlw	64
  2061  00FD28  0E40               u217:
  2062  00FD2A                     decfsz	wreg,f
  2063  00FD2A  2EE8               	bra	u217
  2064  00FD2C  D7FE               	decfsz	(??_main+0+0)&0ffh,c,f
  2065  00FD2E  2E23               	bra	u217
  2066  00FD30  D7FC               	decfsz	(??_main+0+0+1)&0ffh,c,f
  2067  00FD32  2E24               	bra	u217
  2068  00FD34  D7FA               opt asmopt_pop
  2069                           
  2070                           	goto	l844
  2071  00FD36  EF73  F07E         	line	37
  2072                           ;Guess_Which_LEDs.c: 37:     }
  2073                           	
  2074                           l18:
  2075  00FD3A                     	goto	l844
  2076  00FD3A  EF73  F07E         	
  2077                           l19:
  2078  00FD3E                     	line	38
  2079                           	
  2080                           l20:
  2081  00FD3E                     	global	start
  2082                           	goto	start
  2083  00FD3E  EFFE  F07F         	opt stack 0
  2084                           GLOBAL	__end_of_main
  2085                           	__end_of_main:
  2086  00FD42                     	signat	_main,89
  2087                           	global	_srand
  2088                           
  2089 ;; *************** function _srand *****************
  2090 ;; Defined at:
  2091 ;;		line 10 in file "C:\Program Files (x86)\Microchip\xc8\v2.00\pic\sources\c99\common\rand.c"
  2092 ;; Parameters:    Size  Location     Type
  2093 ;;  s               2    0[COMRAM] unsigned int 
  2094 ;; Auto vars:     Size  Location     Type
  2095 ;;		None
  2096 ;; Return value:  Size  Location     Type
  2097 ;;                  1    wreg      void 
  2098 ;; Registers used:
  2099 ;;		wreg, status,2, status,0
  2100 ;; Tracked objects:
  2101 ;;		On entry : 0/0
  2102 ;;		On exit  : 0/0
  2103 ;;		Unchanged: 0/0
  2104 ;; Data sizes:     COMRAM   BANK0   BANK1   BANK2   BANK3   BANK4   BANK5   BANK6   BANK7   BANK8   BANK9  BANK10  BANK1
       1  BANK12  BANK13  BANK14  BANK15
  2105 ;;      Params:         2       0       0       0       0       0       0       0       0       0       0       0       
       0       0       0       0       0
  2106 ;;      Locals:         0       0       0       0       0       0       0       0       0       0       0       0       
       0       0       0       0       0
  2107 ;;      Temps:          4       0       0       0       0       0       0       0       0       0       0       0       
       0       0       0       0       0
  2108 ;;      Totals:         6       0       0       0       0       0       0       0       0       0       0       0       
       0       0       0       0       0
  2109 ;;Total ram usage:        6 bytes
  2110 ;; Hardware stack levels used:    1
  2111 ;; This function calls:
  2112 ;;		Nothing
  2113 ;; This function is called by:
  2114 ;;		_main
  2115 ;; This function uses a non-reentrant model
  2116 ;;
  2117                           psect	text1,class=CODE,space=0,reloc=2,group=2
  2118                           	file	"C:\Program Files (x86)\Microchip\xc8\v2.00\pic\sources\c99\common\rand.c"
  2119                           	line	10
  2120                           global __ptext1
  2121                           __ptext1:
  2122  00FC94                     psect	text1
  2123                           	file	"C:\Program Files (x86)\Microchip\xc8\v2.00\pic\sources\c99\common\rand.c"
  2124                           	line	10
  2125                           	global	__size_of_srand
  2126                           	__size_of_srand	equ	__end_of_srand-_srand
  2127  0000                     	
  2128                           _srand:
  2129  00FC94                     ;incstack = 0
  2130                           	opt	stack 30
  2131                           	line	12
  2132                           	
  2133                           l788:
  2134  00FC94                     	movlw	low(0FFFFh)
  2135  00FC94  0EFF               	movwf	(??_srand+0+0)&0ffh,c
  2136  00FC96  6E03               	movlw	high(0FFFFh)
  2137  00FC98  0EFF               	movwf	1+(??_srand+0+0)&0ffh,c
  2138  00FC9A  6E04               	movff	(c:srand@s),??_srand+2+0
  2139  00FC9C  0060  F004  F005   	movff	(c:srand@s+1),??_srand+2+0+1
  2140  00FCA2  0060  F008  F006   	movf	(??_srand+0+0),c,w
  2141  00FCA8  5003               	addwf	(??_srand+2+0),c
  2142  00FCAA  2605               	movf	(??_srand+0+1),c,w
  2143  00FCAC  5004               	addwfc	(??_srand+2+1),c
  2144  00FCAE  2206               	movff	??_srand+2+0,(c:_seed)
  2145  00FCB0  0060  F014  F027   	movff	??_srand+2+1,(c:_seed+1)
  2146  00FCB6  0060  F018  F028   	clrf	((c:_seed+2)),c
  2147  00FCBC  6A29               	clrf	((c:_seed+3)),c
  2148  00FCBE  6A2A               	clrf	((c:_seed+4)),c
  2149  00FCC0  6A2B               	clrf	((c:_seed+5)),c
  2150  00FCC2  6A2C               	clrf	((c:_seed+6)),c
  2151  00FCC4  6A2D               	clrf	((c:_seed+7)),c
  2152  00FCC6  6A2E               
  2153                           	line	13
  2154                           	
  2155                           l699:
  2156  00FCC8                     	return	;funcret
  2157  00FCC8  0012               	opt stack 0
  2158                           GLOBAL	__end_of_srand
  2159                           	__end_of_srand:
  2160  00FCCA                     	signat	_srand,4217
  2161                           	global	_rand
  2162                           
  2163 ;; *************** function _rand *****************
  2164 ;; Defined at:
  2165 ;;		line 15 in file "C:\Program Files (x86)\Microchip\xc8\v2.00\pic\sources\c99\common\rand.c"
  2166 ;; Parameters:    Size  Location     Type
  2167 ;;		None
  2168 ;; Auto vars:     Size  Location     Type
  2169 ;;		None
  2170 ;; Return value:  Size  Location     Type
  2171 ;;                  2   24[COMRAM] int 
  2172 ;; Registers used:
  2173 ;;		wreg, fsr2l, fsr2h, status,2, status,0, cstack
  2174 ;; Tracked objects:
  2175 ;;		On entry : 0/0
  2176 ;;		On exit  : 0/0
  2177 ;;		Unchanged: 0/0
  2178 ;; Data sizes:     COMRAM   BANK0   BANK1   BANK2   BANK3   BANK4   BANK5   BANK6   BANK7   BANK8   BANK9  BANK10  BANK1
       1  BANK12  BANK13  BANK14  BANK15
  2179 ;;      Params:         2       0       0       0       0       0       0       0       0       0       0       0       
       0       0       0       0       0
  2180 ;;      Locals:         0       0       0       0       0       0       0       0       0       0       0       0       
       0       0       0       0       0
  2181 ;;      Temps:          8       0       0       0       0       0       0       0       0       0       0       0       
       0       0       0       0       0
  2182 ;;      Totals:        10       0       0       0       0       0       0       0       0       0       0       0       
       0       0       0       0       0
  2183 ;;Total ram usage:       10 bytes
  2184 ;; Hardware stack levels used:    1
  2185 ;; Hardware stack levels required when called:    1
  2186 ;; This function calls:
  2187 ;;		___omul
  2188 ;; This function is called by:
  2189 ;;		_main
  2190 ;; This function uses a non-reentrant model
  2191 ;;
  2192                           psect	text2,class=CODE,space=0,reloc=2,group=2
  2193                           	line	15
  2194                           global __ptext2
  2195                           __ptext2:
  2196  00FEE8                     psect	text2
  2197                           	file	"C:\Program Files (x86)\Microchip\xc8\v2.00\pic\sources\c99\common\rand.c"
  2198                           	line	15
  2199                           	global	__size_of_rand
  2200                           	__size_of_rand	equ	__end_of_rand-_rand
  2201  0000                     	
  2202                           _rand:
  2203  00FEE8                     ;incstack = 0
  2204                           	opt	stack 29
  2205                           	line	20
  2206                           	
  2207                           l790:
  2208  00FEE8                     	movff	(c:_seed),(c:___omul@multiplier)
  2209  00FEE8  0060  F09C  F001   	movff	(c:_seed+1),(c:___omul@multiplier+1)
  2210  00FEEE  0060  F0A0  F002   	movff	(c:_seed+2),(c:___omul@multiplier+2)
  2211  00FEF4  0060  F0A4  F003   	movff	(c:_seed+3),(c:___omul@multiplier+3)
  2212  00FEFA  0060  F0A8  F004   	movff	(c:_seed+4),(c:___omul@multiplier+4)
  2213  00FF00  0060  F0AC  F005   	movff	(c:_seed+5),(c:___omul@multiplier+5)
  2214  00FF06  0060  F0B0  F006   	movff	(c:_seed+6),(c:___omul@multiplier+6)
  2215  00FF0C  0060  F0B4  F007   	movff	(c:_seed+7),(c:___omul@multiplier+7)
  2216  00FF12  0060  F0B8  F008   	movlw	byte0(05851F42D4C957F2Dh)
  2217  00FF18  0E2D               	movwf	((c:___omul@multiplicand)),c
  2218  00FF1A  6E09               	movlw	byte1(05851F42D4C957F2Dh)
  2219  00FF1C  0E7F               	movwf	((c:___omul@multiplicand+1)),c
  2220  00FF1E  6E0A               	movlw	byte2(05851F42D4C957F2Dh)
  2221  00FF20  0E95               	movwf	((c:___omul@multiplicand+2)),c
  2222  00FF22  6E0B               	movlw	byte3(05851F42D4C957F2Dh)
  2223  00FF24  0E4C               	movwf	((c:___omul@multiplicand+3)),c
  2224  00FF26  6E0C               	movlw	byte4(05851F42D4C957F2Dh)
  2225  00FF28  0E2D               	movwf	((c:___omul@multiplicand+4)),c
  2226  00FF2A  6E0D               	movlw	byte5(05851F42D4C957F2Dh)
  2227  00FF2C  0EF4               	movwf	((c:___omul@multiplicand+5)),c
  2228  00FF2E  6E0E               	movlw	byte6(05851F42D4C957F2Dh)
  2229  00FF30  0E51               	movwf	((c:___omul@multiplicand+6)),c
  2230  00FF32  6E0F               	movlw	byte7(05851F42D4C957F2Dh)
  2231  00FF34  0E58               	movwf	((c:___omul@multiplicand+7)),c
  2232  00FF36  6E10               	call	___omul	;wreg free
  2233  00FF38  ECA1  F07E         	movff	0+?___omul,??_rand+0+0
  2234  00FF3C  0060  F004  F01B   	movff	1+?___omul,??_rand+0+0+1
  2235  00FF42  0060  F008  F01C   	movff	2+?___omul,??_rand+0+0+2
  2236  00FF48  0060  F00C  F01D   	movff	3+?___omul,??_rand+0+0+3
  2237  00FF4E  0060  F010  F01E   	movff	4+?___omul,??_rand+0+0+4
  2238  00FF54  0060  F014  F01F   	movff	5+?___omul,??_rand+0+0+5
  2239  00FF5A  0060  F018  F020   	movff	6+?___omul,??_rand+0+0+6
  2240  00FF60  0060  F01C  F021   	movff	7+?___omul,??_rand+0+0+7
  2241  00FF66  0060  F020  F022   	
  2242                           	movlw	01h
  2243  00FF6C  0E01               	addwf	(??_rand+0+0),c,w
  2244  00FF6E  241B               	movwf	((c:_seed)),c
  2245  00FF70  6E27               	movlw	0
  2246  00FF72  0E00               	addwfc	(??_rand+0+1),c,w
  2247  00FF74  201C               	movwf	1+((c:_seed)),c
  2248  00FF76  6E28               	
  2249                           	movlw	0
  2250  00FF78  0E00               	addwfc	(??_rand+0+2),c,w
  2251  00FF7A  201D               	movwf	2+((c:_seed)),c
  2252  00FF7C  6E29               	
  2253                           	movlw	0
  2254  00FF7E  0E00               	addwfc	(??_rand+0+3),c,w
  2255  00FF80  201E               	movwf	3+((c:_seed)),c
  2256  00FF82  6E2A               	
  2257                           	movlw	0
  2258  00FF84  0E00               	addwfc	(??_rand+0+4),c,w
  2259  00FF86  201F               	movwf	4+((c:_seed)),c
  2260  00FF88  6E2B               	
  2261                           	movlw	0
  2262  00FF8A  0E00               	addwfc	(??_rand+0+5),c,w
  2263  00FF8C  2020               	movwf	5+((c:_seed)),c
  2264  00FF8E  6E2C               	
  2265                           	movlw	0
  2266  00FF90  0E00               	addwfc	(??_rand+0+6),c,w
  2267  00FF92  2021               	movwf	6+((c:_seed)),c
  2268  00FF94  6E2D               	
  2269                           	movlw	0
  2270  00FF96  0E00               	addwfc	(??_rand+0+7),c,w
  2271  00FF98  2022               	movwf	7+((c:_seed)),c
  2272  00FF9A  6E2E               	line	23
  2273                           	
  2274                           l792:
  2275  00FF9C                     	movff	(c:_seed),??_rand+0+0
  2276  00FF9C  0060  F09C  F01B   	movff	(c:_seed+1),??_rand+0+0+1
  2277  00FFA2  0060  F0A0  F01C   	movff	(c:_seed+2),??_rand+0+0+2
  2278  00FFA8  0060  F0A4  F01D   	movff	(c:_seed+3),??_rand+0+0+3
  2279  00FFAE  0060  F0A8  F01E   	movff	(c:_seed+4),??_rand+0+0+4
  2280  00FFB4  0060  F0AC  F01F   	movff	(c:_seed+5),??_rand+0+0+5
  2281  00FFBA  0060  F0B0  F020   	movff	(c:_seed+6),??_rand+0+0+6
  2282  00FFC0  0060  F0B4  F021   	movff	(c:_seed+7),??_rand+0+0+7
  2283  00FFC6  0060  F0B8  F022   	movlw	07h+1
  2284  00FFCC  0E08               	goto	u140
  2285  00FFCE  EFF2  F07F         u145:
  2286  00FFD2                     	bcf	status,0
  2287  00FFD2  90D8               	rrcf	(??_rand+0+7),c
  2288  00FFD4  3222               	rrcf	(??_rand+0+6),c
  2289  00FFD6  3221               	rrcf	(??_rand+0+5),c
  2290  00FFD8  3220               	rrcf	(??_rand+0+4),c
  2291  00FFDA  321F               	rrcf	(??_rand+0+3),c
  2292  00FFDC  321E               	rrcf	(??_rand+0+2),c
  2293  00FFDE  321D               	rrcf	(??_rand+0+1),c
  2294  00FFE0  321C               	rrcf	(??_rand+0+0),c
  2295  00FFE2  321B               u140:
  2296  00FFE4                     	decfsz	wreg
  2297  00FFE4  2EE8               	goto	u145
  2298  00FFE6  EFE9  F07F         	movff	??_rand+0+0,(c:?_rand)
  2299  00FFEA  0060  F06C  F019   	movff	??_rand+0+2,(c:?_rand+1)
  2300  00FFF0  0060  F074  F01A   	goto	l702
  2301  00FFF6  EFFD  F07F         	
  2302                           l794:
  2303  00FFFA                     	line	27
  2304                           	
  2305                           l702:
  2306  00FFFA                     	return	;funcret
  2307  00FFFA  0012               	opt stack 0
  2308                           GLOBAL	__end_of_rand
  2309                           	__end_of_rand:
  2310  00FFFC                     	signat	_rand,90
  2311                           	global	___omul
  2312                           
  2313 ;; *************** function ___omul *****************
  2314 ;; Defined at:
  2315 ;;		line 91 in file "C:\Program Files (x86)\Microchip\xc8\v2.00\pic\sources\c99\common\Umul64.c"
  2316 ;; Parameters:    Size  Location     Type
  2317 ;;  multiplier      8    0[COMRAM] unsigned long long 
  2318 ;;  multiplicand    8    8[COMRAM] unsigned long long 
  2319 ;; Auto vars:     Size  Location     Type
  2320 ;;  product         8   16[COMRAM] unsigned long long 
  2321 ;; Return value:  Size  Location     Type
  2322 ;;                  8    0[COMRAM] unsigned long long 
  2323 ;; Registers used:
  2324 ;;		wreg, fsr2l, fsr2h, status,2, status,0
  2325 ;; Tracked objects:
  2326 ;;		On entry : 0/0
  2327 ;;		On exit  : 0/0
  2328 ;;		Unchanged: 0/0
  2329 ;; Data sizes:     COMRAM   BANK0   BANK1   BANK2   BANK3   BANK4   BANK5   BANK6   BANK7   BANK8   BANK9  BANK10  BANK1
       1  BANK12  BANK13  BANK14  BANK15
  2330 ;;      Params:        16       0       0       0       0       0       0       0       0       0       0       0       
       0       0       0       0       0
  2331 ;;      Locals:         8       0       0       0       0       0       0       0       0       0       0       0       
       0       0       0       0       0
  2332 ;;      Temps:          0       0       0       0       0       0       0       0       0       0       0       0       
       0       0       0       0       0
  2333 ;;      Totals:        24       0       0       0       0       0       0       0       0       0       0       0       
       0       0       0       0       0
  2334 ;;Total ram usage:       24 bytes
  2335 ;; Hardware stack levels used:    1
  2336 ;; This function calls:
  2337 ;;		Nothing
  2338 ;; This function is called by:
  2339 ;;		_rand
  2340 ;; This function uses a non-reentrant model
  2341 ;;
  2342                           psect	text3,class=CODE,space=0,reloc=2,group=1
  2343                           	file	"C:\Program Files (x86)\Microchip\xc8\v2.00\pic\sources\c99\common\Umul64.c"
  2344                           	line	91
  2345                           global __ptext3
  2346                           __ptext3:
  2347  00FD42                     psect	text3
  2348                           	file	"C:\Program Files (x86)\Microchip\xc8\v2.00\pic\sources\c99\common\Umul64.c"
  2349                           	line	91
  2350                           	global	__size_of___omul
  2351                           	__size_of___omul	equ	__end_of___omul-___omul
  2352  0000                     	
  2353                           ___omul:
  2354  00FD42                     ;incstack = 0
  2355                           	opt	stack 29
  2356                           	line	333
  2357                           	
  2358                           l778:
  2359  00FD42                     	lfsr	2,(___omul@product)
  2360  00FD42  EE20  F011         	movlw	8-1
  2361  00FD46  0E07               u111:
  2362  00FD48                     	clrf	postinc2
  2363  00FD48  6ADE               	decf	wreg
  2364  00FD4A  06E8               	bc	u111
  2365  00FD4C  E2FD               	goto	l780
  2366  00FD4E  EFA9  F07E         	line	334
  2367                           	
  2368                           l38:
  2369  00FD52                     	line	335
  2370                           	
  2371                           l780:
  2372  00FD52                     	
  2373                           	btfss	((c:___omul@multiplier)),c,(0)&7
  2374  00FD52  A001               	goto	u121
  2375  00FD54  EFAE  F07E         	goto	u120
  2376  00FD58  EFB0  F07E         u121:
  2377  00FD5C                     	goto	l784
  2378  00FD5C  EFC2  F07E         u120:
  2379  00FD60                     	line	336
  2380                           	
  2381                           l782:
  2382  00FD60                     	movf	((c:___omul@multiplicand)),c,w
  2383  00FD60  5009               	addwf	((c:___omul@product)),c
  2384  00FD62  2611               	movf	((c:___omul@multiplicand+1)),c,w
  2385  00FD64  500A               	addwfc	((c:___omul@product+1)),c
  2386  00FD66  2212               	movf	((c:___omul@multiplicand+2)),c,w
  2387  00FD68  500B               	addwfc	((c:___omul@product+2)),c
  2388  00FD6A  2213               	movf	((c:___omul@multiplicand+3)),c,w
  2389  00FD6C  500C               	addwfc	((c:___omul@product+3)),c
  2390  00FD6E  2214               	movf	((c:___omul@multiplicand+4)),c,w
  2391  00FD70  500D               	addwfc	((c:___omul@product+4)),c
  2392  00FD72  2215               	movf	((c:___omul@multiplicand+5)),c,w
  2393  00FD74  500E               	addwfc	((c:___omul@product+5)),c
  2394  00FD76  2216               	movf	((c:___omul@multiplicand+6)),c,w
  2395  00FD78  500F               	addwfc	((c:___omul@product+6)),c
  2396  00FD7A  2217               	movf	((c:___omul@multiplicand+7)),c,w
  2397  00FD7C  5010               	addwfc	((c:___omul@product+7)),c
  2398  00FD7E  2218               	goto	l784
  2399  00FD80  EFC2  F07E         	
  2400                           l39:
  2401  00FD84                     	line	337
  2402                           	
  2403                           l784:
  2404  00FD84                     	bcf	status,0
  2405  00FD84  90D8               	rlcf	((c:___omul@multiplicand)),c
  2406  00FD86  3609               	rlcf	((c:___omul@multiplicand+1)),c
  2407  00FD88  360A               	rlcf	((c:___omul@multiplicand+2)),c
  2408  00FD8A  360B               	rlcf	((c:___omul@multiplicand+3)),c
  2409  00FD8C  360C               	rlcf	((c:___omul@multiplicand+4)),c
  2410  00FD8E  360D               	rlcf	((c:___omul@multiplicand+5)),c
  2411  00FD90  360E               	rlcf	((c:___omul@multiplicand+6)),c
  2412  00FD92  360F               	rlcf	((c:___omul@multiplicand+7)),c
  2413  00FD94  3610               	line	338
  2414                           	
  2415                           l786:
  2416  00FD96                     	bcf	status,0
  2417  00FD96  90D8               	rrcf	((c:___omul@multiplier+7)),c
  2418  00FD98  3208               	rrcf	((c:___omul@multiplier+6)),c
  2419  00FD9A  3207               	rrcf	((c:___omul@multiplier+5)),c
  2420  00FD9C  3206               	rrcf	((c:___omul@multiplier+4)),c
  2421  00FD9E  3205               	rrcf	((c:___omul@multiplier+3)),c
  2422  00FDA0  3204               	rrcf	((c:___omul@multiplier+2)),c
  2423  00FDA2  3203               	rrcf	((c:___omul@multiplier+1)),c
  2424  00FDA4  3202               	rrcf	((c:___omul@multiplier)),c
  2425  00FDA6  3201               	line	339
  2426                           	movf	((c:___omul@multiplier)),c,w
  2427  00FDA8  5001               iorwf	((c:___omul@multiplier+1)),c,w
  2428  00FDAA  1002               iorwf	((c:___omul@multiplier+2)),c,w
  2429  00FDAC  1003               iorwf	((c:___omul@multiplier+3)),c,w
  2430  00FDAE  1004               iorwf	((c:___omul@multiplier+4)),c,w
  2431  00FDB0  1005               iorwf	((c:___omul@multiplier+5)),c,w
  2432  00FDB2  1006               iorwf	((c:___omul@multiplier+6)),c,w
  2433  00FDB4  1007               iorwf	((c:___omul@multiplier+7)),c,w
  2434  00FDB6  1008               	btfss	status,2
  2435  00FDB8  A4D8               	goto	u131
  2436  00FDBA  EFE1  F07E         	goto	u130
  2437  00FDBE  EFE3  F07E         
  2438                           u131:
  2439  00FDC2                     	goto	l780
  2440  00FDC2  EFA9  F07E         u130:
  2441  00FDC6                     	
  2442                           l40:
  2443  00FDC6                     	line	353
  2444                           	movff	(c:___omul@product),(c:?___omul)
  2445  00FDC6  0060  F044  F001   	movff	(c:___omul@product+1),(c:?___omul+1)
  2446  00FDCC  0060  F048  F002   	movff	(c:___omul@product+2),(c:?___omul+2)
  2447  00FDD2  0060  F04C  F003   	movff	(c:___omul@product+3),(c:?___omul+3)
  2448  00FDD8  0060  F050  F004   	movff	(c:___omul@product+4),(c:?___omul+4)
  2449  00FDDE  0060  F054  F005   	movff	(c:___omul@product+5),(c:?___omul+5)
  2450  00FDE4  0060  F058  F006   	movff	(c:___omul@product+6),(c:?___omul+6)
  2451  00FDEA  0060  F05C  F007   	movff	(c:___omul@product+7),(c:?___omul+7)
  2452  00FDF0  0060  F060  F008   	line	354
  2453                           	
  2454                           l41:
  2455  00FDF6                     	return	;funcret
  2456  00FDF6  0012               	opt stack 0
  2457                           GLOBAL	__end_of___omul
  2458                           	__end_of___omul:
  2459  00FDF8                     	signat	___omul,8319
  2460                           	global	___awdiv
  2461                           
  2462 ;; *************** function ___awdiv *****************
  2463 ;; Defined at:
  2464 ;;		line 7 in file "C:\Program Files (x86)\Microchip\xc8\v2.00\pic\sources\c99\common\awdiv.c"
  2465 ;; Parameters:    Size  Location     Type
  2466 ;;  dividend        2    0[COMRAM] int 
  2467 ;;  divisor         2    2[COMRAM] int 
  2468 ;; Auto vars:     Size  Location     Type
  2469 ;;  quotient        2    6[COMRAM] int 
  2470 ;;  sign            1    5[COMRAM] unsigned char 
  2471 ;;  counter         1    4[COMRAM] unsigned char 
  2472 ;; Return value:  Size  Location     Type
  2473 ;;                  2    0[COMRAM] int 
  2474 ;; Registers used:
  2475 ;;		wreg, status,2, status,0
  2476 ;; Tracked objects:
  2477 ;;		On entry : 0/0
  2478 ;;		On exit  : 0/0
  2479 ;;		Unchanged: 0/0
  2480 ;; Data sizes:     COMRAM   BANK0   BANK1   BANK2   BANK3   BANK4   BANK5   BANK6   BANK7   BANK8   BANK9  BANK10  BANK1
       1  BANK12  BANK13  BANK14  BANK15
  2481 ;;      Params:         4       0       0       0       0       0       0       0       0       0       0       0       
       0       0       0       0       0
  2482 ;;      Locals:         4       0       0       0       0       0       0       0       0       0       0       0       
       0       0       0       0       0
  2483 ;;      Temps:          0       0       0       0       0       0       0       0       0       0       0       0       
       0       0       0       0       0
  2484 ;;      Totals:         8       0       0       0       0       0       0       0       0       0       0       0       
       0       0       0       0       0
  2485 ;;Total ram usage:        8 bytes
  2486 ;; Hardware stack levels used:    1
  2487 ;; This function calls:
  2488 ;;		Nothing
  2489 ;; This function is called by:
  2490 ;;		_main
  2491 ;; This function uses a non-reentrant model
  2492 ;;
  2493                           psect	text4,class=CODE,space=0,reloc=2,group=1
  2494                           	file	"C:\Program Files (x86)\Microchip\xc8\v2.00\pic\sources\c99\common\awdiv.c"
  2495                           	line	7
  2496                           global __ptext4
  2497                           __ptext4:
  2498  00FDF8                     psect	text4
  2499                           	file	"C:\Program Files (x86)\Microchip\xc8\v2.00\pic\sources\c99\common\awdiv.c"
  2500                           	line	7
  2501                           	global	__size_of___awdiv
  2502                           	__size_of___awdiv	equ	__end_of___awdiv-___awdiv
  2503  0000                     	
  2504                           ___awdiv:
  2505  00FDF8                     ;incstack = 0
  2506                           	opt	stack 30
  2507                           	line	13
  2508                           	
  2509                           l796:
  2510  00FDF8                     	movlw	low(0)
  2511  00FDF8  0E00               	movwf	((c:___awdiv@sign)),c
  2512  00FDFA  6E06               	line	14
  2513                           	
  2514                           l798:
  2515  00FDFC                     	btfsc	((c:___awdiv@divisor+1)),c,7
  2516  00FDFC  BE04               	goto	u150
  2517  00FDFE  EF05  F07F         	goto	u151
  2518  00FE02  EF03  F07F         
  2519                           u151:
  2520  00FE06                     	goto	l804
  2521  00FE06  EF0D  F07F         u150:
  2522  00FE0A                     	line	15
  2523                           	
  2524                           l800:
  2525  00FE0A                     	negf	((c:___awdiv@divisor)),c
  2526  00FE0A  6C03               	comf	((c:___awdiv@divisor+1)),c
  2527  00FE0C  1E04               	btfsc	status,0
  2528  00FE0E  B0D8               	incf	((c:___awdiv@divisor+1)),c
  2529  00FE10  2A04               	line	16
  2530                           	
  2531                           l802:
  2532  00FE12                     	movlw	low(01h)
  2533  00FE12  0E01               	movwf	((c:___awdiv@sign)),c
  2534  00FE14  6E06               	goto	l804
  2535  00FE16  EF0D  F07F         	line	17
  2536                           	
  2537                           l244:
  2538  00FE1A                     	line	18
  2539                           	
  2540                           l804:
  2541  00FE1A                     	btfsc	((c:___awdiv@dividend+1)),c,7
  2542  00FE1A  BE02               	goto	u160
  2543  00FE1C  EF14  F07F         	goto	u161
  2544  00FE20  EF12  F07F         
  2545                           u161:
  2546  00FE24                     	goto	l810
  2547  00FE24  EF1C  F07F         u160:
  2548  00FE28                     	line	19
  2549                           	
  2550                           l806:
  2551  00FE28                     	negf	((c:___awdiv@dividend)),c
  2552  00FE28  6C01               	comf	((c:___awdiv@dividend+1)),c
  2553  00FE2A  1E02               	btfsc	status,0
  2554  00FE2C  B0D8               	incf	((c:___awdiv@dividend+1)),c
  2555  00FE2E  2A02               	line	20
  2556                           	
  2557                           l808:
  2558  00FE30                     	movlw	(01h)&0ffh
  2559  00FE30  0E01               	xorwf	((c:___awdiv@sign)),c
  2560  00FE32  1A06               	goto	l810
  2561  00FE34  EF1C  F07F         	line	21
  2562                           	
  2563                           l245:
  2564  00FE38                     	line	22
  2565                           	
  2566                           l810:
  2567  00FE38                     	movlw	high(0)
  2568  00FE38  0E00               	movwf	((c:___awdiv@quotient+1)),c
  2569  00FE3A  6E08               	movlw	low(0)
  2570  00FE3C  0E00               	movwf	((c:___awdiv@quotient)),c
  2571  00FE3E  6E07               	line	23
  2572                           	
  2573                           l812:
  2574  00FE40                     	movf	((c:___awdiv@divisor)),c,w
  2575  00FE40  5003               iorwf	((c:___awdiv@divisor+1)),c,w
  2576  00FE42  1004               	btfsc	status,2
  2577  00FE44  B4D8               	goto	u171
  2578  00FE46  EF27  F07F         	goto	u170
  2579  00FE4A  EF29  F07F         
  2580                           u171:
  2581  00FE4E                     	goto	l832
  2582  00FE4E  EF5D  F07F         u170:
  2583  00FE52                     	line	24
  2584                           	
  2585                           l814:
  2586  00FE52                     	movlw	low(01h)
  2587  00FE52  0E01               	movwf	((c:___awdiv@counter)),c
  2588  00FE54  6E05               	line	25
  2589                           	goto	l818
  2590  00FE56  EF33  F07F         	
  2591                           l248:
  2592  00FE5A                     	line	26
  2593                           	
  2594                           l816:
  2595  00FE5A                     	bcf	status,0
  2596  00FE5A  90D8               	rlcf	((c:___awdiv@divisor)),c
  2597  00FE5C  3603               	rlcf	((c:___awdiv@divisor+1)),c
  2598  00FE5E  3604               	line	27
  2599                           	incf	((c:___awdiv@counter)),c
  2600  00FE60  2A05               	goto	l818
  2601  00FE62  EF33  F07F         	line	28
  2602                           	
  2603                           l247:
  2604  00FE66                     	line	25
  2605                           	
  2606                           l818:
  2607  00FE66                     	
  2608                           	btfss	((c:___awdiv@divisor+1)),c,(15)&7
  2609  00FE66  AE04               	goto	u181
  2610  00FE68  EF38  F07F         	goto	u180
  2611  00FE6C  EF3A  F07F         u181:
  2612  00FE70                     	goto	l816
  2613  00FE70  EF2D  F07F         u180:
  2614  00FE74                     	goto	l820
  2615  00FE74  EF3E  F07F         	
  2616                           l249:
  2617  00FE78                     	goto	l820
  2618  00FE78  EF3E  F07F         	line	29
  2619                           	
  2620                           l250:
  2621  00FE7C                     	line	30
  2622                           	
  2623                           l820:
  2624  00FE7C                     	bcf	status,0
  2625  00FE7C  90D8               	rlcf	((c:___awdiv@quotient)),c
  2626  00FE7E  3607               	rlcf	((c:___awdiv@quotient+1)),c
  2627  00FE80  3608               	line	31
  2628                           	
  2629                           l822:
  2630  00FE82                     		movf	((c:___awdiv@divisor)),c,w
  2631  00FE82  5003               	subwf	((c:___awdiv@dividend)),c,w
  2632  00FE84  5C01               	movf	((c:___awdiv@divisor+1)),c,w
  2633  00FE86  5004               	subwfb	((c:___awdiv@dividend+1)),c,w
  2634  00FE88  5802               	btfss	status,0
  2635  00FE8A  A0D8               	goto	u191
  2636  00FE8C  EF4A  F07F         	goto	u190
  2637  00FE90  EF4C  F07F         
  2638                           u191:
  2639  00FE94                     	goto	l828
  2640  00FE94  EF53  F07F         u190:
  2641  00FE98                     	line	32
  2642                           	
  2643                           l824:
  2644  00FE98                     	movf	((c:___awdiv@divisor)),c,w
  2645  00FE98  5003               	subwf	((c:___awdiv@dividend)),c
  2646  00FE9A  5E01               	movf	((c:___awdiv@divisor+1)),c,w
  2647  00FE9C  5004               	subwfb	((c:___awdiv@dividend+1)),c
  2648  00FE9E  5A02               
  2649                           	line	33
  2650                           	
  2651                           l826:
  2652  00FEA0                     	bsf	(0+(0/8)+(c:___awdiv@quotient)),c,(0)&7
  2653  00FEA0  8007               	goto	l828
  2654  00FEA2  EF53  F07F         	line	34
  2655                           	
  2656                           l251:
  2657  00FEA6                     	line	35
  2658                           	
  2659                           l828:
  2660  00FEA6                     	bcf	status,0
  2661  00FEA6  90D8               	rrcf	((c:___awdiv@divisor+1)),c
  2662  00FEA8  3204               	rrcf	((c:___awdiv@divisor)),c
  2663  00FEAA  3203               	line	36
  2664                           	
  2665                           l830:
  2666  00FEAC                     	decfsz	((c:___awdiv@counter)),c
  2667  00FEAC  2E05               	
  2668                           	goto	l820
  2669  00FEAE  EF3E  F07F         	goto	l832
  2670  00FEB2  EF5D  F07F         	
  2671                           l252:
  2672  00FEB6                     	goto	l832
  2673  00FEB6  EF5D  F07F         	line	37
  2674                           	
  2675                           l246:
  2676  00FEBA                     	line	38
  2677                           	
  2678                           l832:
  2679  00FEBA                     	movf	((c:___awdiv@sign)),c,w
  2680  00FEBA  5006               	btfsc	status,2
  2681  00FEBC  B4D8               	goto	u201
  2682  00FEBE  EF63  F07F         	goto	u200
  2683  00FEC2  EF65  F07F         u201:
  2684  00FEC6                     	goto	l836
  2685  00FEC6  EF6B  F07F         u200:
  2686  00FECA                     	line	39
  2687                           	
  2688                           l834:
  2689  00FECA                     	negf	((c:___awdiv@quotient)),c
  2690  00FECA  6C07               	comf	((c:___awdiv@quotient+1)),c
  2691  00FECC  1E08               	btfsc	status,0
  2692  00FECE  B0D8               	incf	((c:___awdiv@quotient+1)),c
  2693  00FED0  2A08               	goto	l836
  2694  00FED2  EF6B  F07F         	
  2695                           l253:
  2696  00FED6                     	line	40
  2697                           	
  2698                           l836:
  2699  00FED6                     	movff	(c:___awdiv@quotient),(c:?___awdiv)
  2700  00FED6  0060  F01C  F001   	movff	(c:___awdiv@quotient+1),(c:?___awdiv+1)
  2701  00FEDC  0060  F020  F002   	goto	l254
  2702  00FEE2  EF73  F07F         	
  2703                           l838:
  2704  00FEE6                     	line	41
  2705                           	
  2706                           l254:
  2707  00FEE6                     	return	;funcret
  2708  00FEE6  0012               	opt stack 0
  2709                           GLOBAL	__end_of___awdiv
  2710                           	__end_of___awdiv:
  2711  00FEE8                     	signat	___awdiv,8314
  2712                           	GLOBAL	__activetblptr
  2713                           __activetblptr	EQU	0
  2714  0000                     	psect	intsave_regs,class=BIGRAM,space=1,noexec
  2715                           	PSECT	rparam,class=COMRAM,space=1,noexec
  2716                           	GLOBAL	__Lrparam
  2717                           	FNCONF	rparam,??,?
  2718                           	GLOBAL	___rparam_used
  2719                           	___rparam_used EQU 1
  2720  0000                     	GLOBAL	___param_bank
  2721                           	___param_bank EQU 0
  2722  0000                     GLOBAL	__Lparam, __Hparam
  2723                           GLOBAL	__Lrparam, __Hrparam
  2724                           __Lparam	EQU	__Lrparam
  2725  0000                     __Hparam	EQU	__Hrparam
  2726  0000                     	end


Data Sizes:
    Strings     0
    Constant    0
    Data        0
    BSS         0
    Persistent  8
    Stack       0

Auto Spaces:
    Space          Size  Autos    Used
    COMRAM           95     38      46
    BANK0           160      0       0
    BANK1           256      0       0
    BANK2           256      0       0
    BANK3           256      0       0
    BANK4           256      0       0
    BANK5           256      0       0
    BANK6           256      0       0
    BANK7           256      0       0
    BANK8           256      0       0
    BANK9           256      0       0
    BANK10          256      0       0
    BANK11          256      0       0
    BANK12          256      0       0
    BANK13          256      0       0
    BANK14          256      0       0
    BANK15          256      0       0

Pointer List with Targets:

    None.

Critical Paths under _main in COMRAM

    _main->_rand
    _rand->___omul

Critical Paths under _main in BANK0

    None.

Critical Paths under _main in BANK1

    None.

Critical Paths under _main in BANK2

    None.

Critical Paths under _main in BANK3

    None.

Critical Paths under _main in BANK4

    None.

Critical Paths under _main in BANK5

    None.

Critical Paths under _main in BANK6

    None.

Critical Paths under _main in BANK7

    None.

Critical Paths under _main in BANK8

    None.

Critical Paths under _main in BANK9

    None.

Critical Paths under _main in BANK10

    None.

Critical Paths under _main in BANK11

    None.

Critical Paths under _main in BANK12

    None.

Critical Paths under _main in BANK13

    None.

Critical Paths under _main in BANK14

    None.

Critical Paths under _main in BANK15

    None.

Call Graph Tables:

 ---------------------------------------------------------------------------------
 (Depth) Function   	        Calls       Base Space   Used Autos Params    Refs
 ---------------------------------------------------------------------------------
 (0) _main                                                 4     4      0     966
                                             34 COMRAM     4     4      0
                            ___awdiv
                               _rand
                              _srand
 ---------------------------------------------------------------------------------
 (1) _srand                                                6     4      2      98
                                              0 COMRAM     6     4      2
 ---------------------------------------------------------------------------------
 (1) _rand                                                10     8      2     370
                                             24 COMRAM    10     8      2
                             ___omul
 ---------------------------------------------------------------------------------
 (2) ___omul                                              24     8     16     370
                                              0 COMRAM    24     8     16
 ---------------------------------------------------------------------------------
 (1) ___awdiv                                              8     4      4     452
                                              0 COMRAM     8     4      4
 ---------------------------------------------------------------------------------
 Estimated maximum stack depth 2
 ---------------------------------------------------------------------------------

 Call Graph Graphs:

 _main (ROOT)
   ___awdiv
   _rand
     ___omul
   _srand

 Address spaces:
Name               Size   Autos  Total    Cost      Usage
BITCOMRAM           5F      0       0       0        0.0%
EEDATA             400      0       0       0        0.0%
NULL                 0      0       0       0        0.0%
CODE                 0      0       0       0        0.0%
COMRAM              5F     26      2E       1       48.4%
STACK                0      0       0       2        0.0%
DATA                 0      0      2E       3        0.0%
BITBANK0            A0      0       0       4        0.0%
BANK0               A0      0       0       5        0.0%
BITBANK1           100      0       0       6        0.0%
BANK1              100      0       0       7        0.0%
BITBANK2           100      0       0       8        0.0%
BANK2              100      0       0       9        0.0%
BITBANK3           100      0       0      10        0.0%
BANK3              100      0       0      11        0.0%
BITBANK4           100      0       0      12        0.0%
BANK4              100      0       0      13        0.0%
BITBANK5           100      0       0      14        0.0%
BANK5              100      0       0      15        0.0%
BITBANK6           100      0       0      16        0.0%
BANK6              100      0       0      17        0.0%
BITBANK7           100      0       0      18        0.0%
BANK7              100      0       0      19        0.0%
BITBANK8           100      0       0      20        0.0%
BANK8              100      0       0      21        0.0%
BITBANK9           100      0       0      22        0.0%
BANK9              100      0       0      23        0.0%
BANK10             100      0       0      24        0.0%
BANK11             100      0       0      25        0.0%
BANK12             100      0       0      26        0.0%
BANK13             100      0       0      27        0.0%
BITBANK14          100      0       0      28        0.0%
BANK14             100      0       0      29        0.0%
BITBANK15          100      0       0      30        0.0%
BANK15             100      0       0      31        0.0%
ABS                  0      0      2E      32        0.0%
BITBANK10          100      0       0      33        0.0%
BITBANK11          100      0       0      34        0.0%
BITBANK12          100      0       0      35        0.0%
BITBANK13          100      0       0      36        0.0%
BIGRAM             FFF      0       0      37        0.0%
BITSFR_8             0      0       0     200        0.0%
SFR_8                0      0       0     200        0.0%
BITSFR_7             0      0       0     200        0.0%
SFR_7                0      0       0     200        0.0%
BITSFR_6             0      0       0     200        0.0%
SFR_6                0      0       0     200        0.0%
BITSFR_5             0      0       0     200        0.0%
SFR_5                0      0       0     200        0.0%
BITSFR_4             0      0       0     200        0.0%
SFR_4                0      0       0     200        0.0%
BITSFR_3             0      0       0     200        0.0%
SFR_3                0      0       0     200        0.0%
BITSFR_2             0      0       0     200        0.0%
SFR_2                0      0       0     200        0.0%
BITSFR_1             0      0       0     200        0.0%
SFR_1                0      0       0     200        0.0%
BITSFR               0      0       0     200        0.0%
SFR                  0      0       0     200        0.0%


Microchip Technology PIC18 Macro Assembler V2.00 build -1524193055 
Symbol Table                                                                                   Tue Jun 11 14:50:32 2019

            __CFG_CP$OFF 000000                       l20 FD3E                       l40 FDC6  
                     l41 FDF6                       l17 FCE6                       l18 FD3A  
                     l19 FD3E                       l38 FD52                       l39 FD84  
           ___awdiv@sign 0006              __CFG_LVP$ON 000000                      l250 FE7C  
                    l251 FEA6                      l252 FEB6                      l244 FE1A  
                    l253 FED6                      l245 FE38                      l254 FEE6  
                    l246 FEBA                      l247 FE66                      l248 FE5A  
                    l249 FE78                      l702 FFFA                      l800 FE0A  
                    l810 FE38                      l802 FE12                      l820 FE7C  
                    l812 FE40                      l804 FE1A                      l830 FEAC  
                    l822 FE82                      l814 FE52                      l806 FE28  
                    l824 FE98                      l816 FE5A                      l832 FEBA  
                    l808 FE30                      l840 FCCA                      l834 FECA  
                    l826 FEA0                      l818 FE66                      l850 FD20  
                    l842 FCD6                      l836 FED6                      l828 FEA6  
                    l780 FD52                      l844 FCE6                      l838 FEE6  
                    l782 FD60                      l790 FEE8                      l846 FCF6  
                    l784 FD84                      l792 FF9C                      l848 FD1A  
                    l786 FD96                      l778 FD42                      l794 FFFA  
                    l699 FCC8                      l796 FDF8                      l788 FC94  
                    l798 FDFC                      u111 FD48                      u200 FECA  
                    u120 FD60                      u201 FEC6                      u121 FD5C  
                    u130 FDC6                      u131 FDC2                      u140 FFE4  
                    u150 FE0A                      u151 FE06                      u160 FE28  
                    u161 FE24                      u145 FFD2                      u217 FD2A  
                    u170 FE52                      u171 FE4E                      u180 FE74  
                    u181 FE70                      u190 FE98                      u191 FE94  
                    wreg 003FE8            __CFG_BBEN$OFF 000000             __CFG_ZCD$OFF 000000  
                   _main FCCA                     _rand FEE8                     _seed 0027  
                   start FFFC            __CFG_CSWEN$ON 000000             ___param_bank 000000  
                  ?_main 0001                    ?_rand 0019          __end_of___awdiv FEE8  
          __CFG_WDTE$OFF 000000          ___awdiv@divisor 0003           __CFG_DEBUG$OFF 000000  
        ___awdiv@counter 0005                    _PORTB 003FCB                    _TRISB 003FC3  
         __CFG_FCMEN$OFF 000000             main@rand_num 0025            __CFG_WRTB$OFF 000000  
          __CFG_WRTC$OFF 000000            __CFG_WRTD$OFF 000000       __CFG_MCLRE$EXTMCLR 000000  
                  _srand FC94                    status 003FD8          __initialization FC8E  
           __end_of_main FD42             __end_of_rand FFFC           __CFG_SAFEN$OFF 000000  
                 ??_main 0023                   ??_rand 001B           __CFG_PR1WAY$ON 000000  
          __activetblptr 000000         ___awdiv@dividend 0001                   ?_srand 0001  
                 _ANSELB 003A50           __CFG_WDTCCS$SC 000000       __CFG_RSTOSC$EXTOSC 000000  
         __CFG_XINST$OFF 000000                   ___omul FD42                ??___awdiv 0005  
         __CFG_STVREN$ON 000000         ___awdiv@quotient 0007                   srand@s 0001  
             __accesstop 0060  __end_of__initialization FC8E          __CFG_FEXTOSC$HS 000000  
          ___rparam_used 000001           __pcstackCOMRAM 0001            __end_of_srand FCCA  
        __CFG_IVT1WAY$ON 000000                  ??_srand 0003          __CFG_MVECEN$OFF 000000  
             __pnvCOMRAM 0027                  ?___omul 0001          __CFG_PPS1WAY$ON 000000  
    ___omul@multiplicand 0009      __CFG_PWRTS$PWRT_OFF 000000                  __Hparam 0000  
                __Lparam 0000                  ___awdiv FDF8          __size_of___omul 00B6  
                __pcinit FC8E                  __ramtop 1000                  __ptext0 FCCA  
                __ptext1 FC94                  __ptext2 FEE8                  __ptext3 FD42  
                __ptext4 FDF8          __CFG_WRTAPP$OFF 000000          __CFG_WRTSAF$OFF 000000  
   end_of_initialization FC8E           ___omul@product 0011                  postinc2 003FDE  
  __CFG_WDTCPS$WDTCPS_31 000000           __end_of___omul FDF8      start_initialization FC8E  
      ___omul@multiplier 0001         __CFG_LPBOREN$OFF 000000                 ??___omul 0011  
               ?___awdiv 0001   __CFG_BBSIZE$BBSIZE_512 000000           __size_of_srand 0036  
    __CFG_BORV$VBOR_2P45 000000                 __Hrparam 0000                 __Lrparam 0000  
     __CFG_BOREN$SBORDIS 000000         __size_of___awdiv 00F0            __size_of_main 0078  
          __size_of_rand 0114     __CFG_WDTCWS$WDTCWS_7 000000        __CFG_CLKOUTEN$OFF 000000  
